
p0.exe:     file format elf32-sparc


Disassembly of section .text:

41000000 <_ERC32_MEC_Timer_Control_Mirror>:
41000000:	0d 10 40 00 	sethi  %hi(0x41000000), %g6
41000004:	8c 11 a0 58 	or  %g6, 0x58, %g6	! 41000058 <rdb_start>
41000008:	dc 21 80 00 	st  %sp, [ %g6 ]
4100000c:	05 10 40 19 	sethi  %hi(0x41006400), %g2
41000010:	84 10 a3 50 	or  %g2, 0x350, %g2	! 41006750 <_edata>
41000014:	07 10 40 2c 	sethi  %hi(0x4100b000), %g3
41000018:	86 10 e1 f8 	or  %g3, 0x1f8, %g3	! 4100b1f8 <__end>
4100001c:	82 10 00 00 	mov  %g0, %g1

41000020 <zerobss>:
41000020:	c0 38 80 00 	std  %g0, [ %g2 ]
41000024:	84 00 a0 08 	add  %g2, 8, %g2
41000028:	80 a0 80 03 	cmp  %g2, %g3
4100002c:	28 bf ff fd 	bleu,a   41000020 <zerobss>
41000030:	01 00 00 00 	nop 
41000034:	94 10 00 00 	mov  %g0, %o2
41000038:	92 10 00 00 	mov  %g0, %o1
4100003c:	90 10 00 00 	mov  %g0, %o0
41000040:	40 00 10 be 	call  41004338 <boot_card>
41000044:	9c 23 a0 60 	sub  %sp, 0x60, %sp

41000048 <bsp_cleanup>:
41000048:	9a 10 20 0a 	mov  0xa, %o5
4100004c:	92 10 20 00 	clr  %o1
41000050:	90 10 3f ff 	mov  -1, %o0
41000054:	91 d0 20 80 	ta  0x80

41000058 <rdb_start>:
41000058:	01 00 00 00 	nop 

4100005c <__do_global_dtors_aux>:
4100005c:	9d e3 bf a0 	save  %sp, -96, %sp
41000060:	21 10 40 19 	sethi  %hi(0x41006400), %l0
41000064:	c2 0c 23 60 	ldub  [ %l0 + 0x360 ], %g1	! 41006760 <__bss_start>
41000068:	80 a0 60 00 	cmp  %g1, 0
4100006c:	12 80 00 22 	bne  410000f4 <__do_global_dtors_aux+0x98>
41000070:	23 10 40 19 	sethi  %hi(0x41006400), %l1
41000074:	27 10 40 18 	sethi  %hi(0x41006000), %l3
41000078:	c2 04 63 64 	ld  [ %l1 + 0x364 ], %g1
4100007c:	a6 14 e3 94 	or  %l3, 0x394, %l3
41000080:	25 10 40 18 	sethi  %hi(0x41006000), %l2
41000084:	a4 14 a3 a0 	or  %l2, 0x3a0, %l2	! 410063a0 <__DTOR_END__>
41000088:	a4 24 80 13 	sub  %l2, %l3, %l2
4100008c:	a5 3c a0 02 	sra  %l2, 2, %l2
41000090:	a4 04 bf ff 	add  %l2, -1, %l2
41000094:	80 a0 40 12 	cmp  %g1, %l2
41000098:	3a 80 00 0e 	bcc,a   410000d0 <__do_global_dtors_aux+0x74>
4100009c:	03 00 00 00 	sethi  %hi(0), %g1
410000a0:	a2 14 63 64 	or  %l1, 0x364, %l1
410000a4:	82 00 60 01 	inc  %g1
410000a8:	85 28 60 02 	sll  %g1, 2, %g2
410000ac:	c2 24 40 00 	st  %g1, [ %l1 ]
410000b0:	c2 04 c0 02 	ld  [ %l3 + %g2 ], %g1
410000b4:	9f c0 40 00 	call  %g1
410000b8:	01 00 00 00 	nop 
410000bc:	c2 04 40 00 	ld  [ %l1 ], %g1
410000c0:	80 a0 40 12 	cmp  %g1, %l2
410000c4:	0a bf ff f9 	bcs  410000a8 <__do_global_dtors_aux+0x4c>
410000c8:	82 00 60 01 	inc  %g1
410000cc:	03 00 00 00 	sethi  %hi(0), %g1
410000d0:	82 10 60 00 	mov  %g1, %g1	! 0 <PROM_START>
410000d4:	80 a0 60 00 	cmp  %g1, 0
410000d8:	02 80 00 06 	be  410000f0 <__do_global_dtors_aux+0x94>
410000dc:	82 10 20 01 	mov  1, %g1
410000e0:	11 10 40 18 	sethi  %hi(0x41006000), %o0
410000e4:	6f bf ff c7 	call  0 <PROM_START>
410000e8:	90 12 23 40 	or  %o0, 0x340, %o0	! 41006340 <__start_set_sysctl_set>
410000ec:	82 10 20 01 	mov  1, %g1
410000f0:	c2 2c 23 60 	stb  %g1, [ %l0 + 0x360 ]
410000f4:	81 c7 e0 08 	ret 
410000f8:	81 e8 00 00 	restore 

410000fc <call___do_global_dtors_aux>:
410000fc:	9d e3 bf a0 	save  %sp, -96, %sp
41000100:	81 c7 e0 08 	ret 
41000104:	81 e8 00 00 	restore 

41000108 <frame_dummy>:
41000108:	9d e3 bf a0 	save  %sp, -96, %sp
4100010c:	03 00 00 00 	sethi  %hi(0), %g1
41000110:	82 10 60 00 	mov  %g1, %g1	! 0 <PROM_START>
41000114:	80 a0 60 00 	cmp  %g1, 0
41000118:	22 80 00 08 	be,a   41000138 <frame_dummy+0x30>
4100011c:	11 10 40 19 	sethi  %hi(0x41006400), %o0
41000120:	11 10 40 18 	sethi  %hi(0x41006000), %o0
41000124:	13 10 40 19 	sethi  %hi(0x41006400), %o1
41000128:	90 12 23 40 	or  %o0, 0x340, %o0
4100012c:	6f bf ff b5 	call  0 <PROM_START>
41000130:	92 12 63 68 	or  %o1, 0x368, %o1
41000134:	11 10 40 19 	sethi  %hi(0x41006400), %o0
41000138:	c2 02 23 50 	ld  [ %o0 + 0x350 ], %g1	! 41006750 <_edata>
4100013c:	80 a0 60 00 	cmp  %g1, 0
41000140:	02 80 00 09 	be  41000164 <frame_dummy+0x5c>
41000144:	90 12 23 50 	or  %o0, 0x350, %o0
41000148:	03 00 00 00 	sethi  %hi(0), %g1
4100014c:	82 10 60 00 	mov  %g1, %g1	! 0 <PROM_START>
41000150:	80 a0 60 00 	cmp  %g1, 0
41000154:	02 80 00 04 	be  41000164 <frame_dummy+0x5c>
41000158:	01 00 00 00 	nop 
4100015c:	9f c0 40 00 	call  %g1
41000160:	01 00 00 00 	nop 
41000164:	81 c7 e0 08 	ret 
41000168:	81 e8 00 00 	restore 

4100016c <call_frame_dummy>:
4100016c:	9d e3 bf a0 	save  %sp, -96, %sp
41000170:	81 c7 e0 08 	ret 
41000174:	81 e8 00 00 	restore 

41000178 <app_safe_state_handler>:
41000178:	81 c3 e0 08 	retl 
4100017c:	90 10 20 01 	mov  1, %o0

41000180 <Init>:
41000180:	9d e3 bf 98 	save  %sp, -104, %sp
41000184:	92 10 20 84 	mov  0x84, %o1
41000188:	94 07 bf fc 	add  %fp, -4, %o2
4100018c:	11 10 40 00 	sethi  %hi(0x41000000), %o0
41000190:	40 00 00 30 	call  41000250 <rtems_interrupt_catch>
41000194:	90 12 21 cc 	or  %o0, 0x1cc, %o0	! 410001cc <hm_isr_handler>
41000198:	40 00 16 99 	call  41005bfc <imaspex_init>
4100019c:	01 00 00 00 	nop 
410001a0:	03 10 40 00 	sethi  %hi(0x41000000), %g1
410001a4:	82 10 61 e0 	or  %g1, 0x1e0, %g1	! 410001e0 <producer>
410001a8:	80 a0 60 00 	cmp  %g1, 0
410001ac:	02 80 00 04 	be  410001bc <Init+0x3c>
410001b0:	01 00 00 00 	nop 
410001b4:	40 00 00 0b 	call  410001e0 <producer>
410001b8:	01 00 00 00 	nop 
410001bc:	40 00 00 37 	call  41000298 <rtems_task_delete>
410001c0:	90 10 20 00 	clr  %o0	! 0 <PROM_START>
410001c4:	81 c7 e0 08 	ret 
410001c8:	81 e8 00 00 	restore 

410001cc <hm_isr_handler>:
410001cc:	9d e3 bf 98 	save  %sp, -104, %sp
410001d0:	40 00 17 fb 	call  410061bc <xky_syscall_get_hm_event>
410001d4:	90 07 bf f8 	add  %fp, -8, %o0
410001d8:	81 c7 e0 08 	ret 
410001dc:	81 e8 00 00 	restore 

410001e0 <producer>:
410001e0:	9d e3 bf 98 	save  %sp, -104, %sp
410001e4:	23 10 40 18 	sethi  %hi(0x41006000), %l1
410001e8:	90 07 bf f8 	add  %fp, -8, %o0
410001ec:	92 07 bf fc 	add  %fp, -4, %o1
410001f0:	40 00 17 74 	call  41005fc0 <GET_PARTITION_ID>
410001f4:	21 10 40 18 	sethi  %hi(0x41006000), %l0
410001f8:	a2 14 63 a0 	or  %l1, 0x3a0, %l1
410001fc:	a0 14 23 c0 	or  %l0, 0x3c0, %l0
41000200:	40 00 15 25 	call  41005694 <libpprintf_internal_pprintf>
41000204:	90 10 00 11 	mov  %l1, %o0
41000208:	40 00 00 f3 	call  410005d4 <rtems_task_wake_after>
4100020c:	90 10 20 14 	mov  0x14, %o0
41000210:	40 00 15 21 	call  41005694 <libpprintf_internal_pprintf>
41000214:	90 10 00 10 	mov  %l0, %o0
41000218:	30 bf ff fa 	b,a   41000200 <producer+0x20>

4100021c <test2>:
4100021c:	9d e3 bf a0 	save  %sp, -96, %sp
41000220:	40 00 17 97 	call  4100607c <xky_syscall_get_us_per_tick>
41000224:	31 10 40 18 	sethi  %hi(0x41006000), %i0
41000228:	94 10 00 08 	mov  %o0, %o2
4100022c:	96 10 00 09 	mov  %o1, %o3
41000230:	90 10 20 00 	clr  %o0
41000234:	13 00 03 d0 	sethi  %hi(0xf4000), %o1
41000238:	40 00 14 44 	call  41005348 <__divdi3>
4100023c:	92 12 62 40 	or  %o1, 0x240, %o1	! f4240 <PROM_START+0xf4240>
41000240:	b2 10 00 09 	mov  %o1, %i1
41000244:	40 00 15 14 	call  41005694 <libpprintf_internal_pprintf>
41000248:	91 ee 23 d0 	restore  %i0, 0x3d0, %o0
4100024c:	01 00 00 00 	nop 

41000250 <rtems_interrupt_catch>:
41000250:	9d e3 bf a0 	save  %sp, -96, %sp
41000254:	92 10 00 18 	mov  %i0, %o1
41000258:	80 a6 61 ff 	cmp  %i1, 0x1ff
4100025c:	18 80 00 0a 	bgu  41000284 <rtems_interrupt_catch+0x34>
41000260:	b0 10 20 0a 	mov  0xa, %i0
41000264:	80 a2 60 00 	cmp  %o1, 0
41000268:	02 80 00 09 	be  4100028c <rtems_interrupt_catch+0x3c>
4100026c:	80 a6 a0 00 	cmp  %i2, 0
41000270:	02 80 00 07 	be  4100028c <rtems_interrupt_catch+0x3c>
41000274:	90 10 00 19 	mov  %i1, %o0
41000278:	94 10 00 1a 	mov  %i2, %o2
4100027c:	40 00 07 dd 	call  410021f0 <_CPU_ISR_install_vector>
41000280:	b0 10 20 00 	clr  %i0
41000284:	81 c7 e0 08 	ret 
41000288:	81 e8 00 00 	restore 
4100028c:	b0 10 20 09 	mov  9, %i0
41000290:	81 c7 e0 08 	ret 
41000294:	81 e8 00 00 	restore 

41000298 <rtems_task_delete>:
41000298:	9d e3 bf 98 	save  %sp, -104, %sp
4100029c:	80 a6 20 00 	cmp  %i0, 0
410002a0:	12 80 00 2b 	bne  4100034c <rtems_task_delete+0xb4>
410002a4:	83 36 20 18 	srl  %i0, 0x18, %g1
410002a8:	23 10 40 2a 	sethi  %hi(0x4100a800), %l1
410002ac:	c2 04 61 68 	ld  [ %l1 + 0x168 ], %g1	! 4100a968 <_Thread_Dispatch_disable_level>
410002b0:	82 00 60 01 	inc  %g1
410002b4:	c2 24 61 68 	st  %g1, [ %l1 + 0x168 ]
410002b8:	03 10 40 19 	sethi  %hi(0x41006400), %g1
410002bc:	21 10 40 2a 	sethi  %hi(0x4100a800), %l0
410002c0:	c0 27 bf fc 	clr  [ %fp + -4 ]
410002c4:	e4 00 63 94 	ld  [ %g1 + 0x394 ], %l2
410002c8:	a0 14 20 c4 	or  %l0, 0xc4, %l0
410002cc:	c2 04 a0 08 	ld  [ %l2 + 8 ], %g1
410002d0:	85 30 60 1b 	srl  %g1, 0x1b, %g2
410002d4:	83 30 60 16 	srl  %g1, 0x16, %g1
410002d8:	85 28 a0 02 	sll  %g2, 2, %g2
410002dc:	82 08 60 1c 	and  %g1, 0x1c, %g1
410002e0:	c2 04 00 01 	ld  [ %l0 + %g1 ], %g1
410002e4:	d0 00 40 02 	ld  [ %g1 + %g2 ], %o0
410002e8:	80 a2 20 00 	cmp  %o0, 0
410002ec:	02 80 00 35 	be  410003c0 <rtems_task_delete+0x128>
410002f0:	01 00 00 00 	nop 
410002f4:	40 00 03 38 	call  41000fd4 <_Thread_Close>
410002f8:	92 10 00 12 	mov  %l2, %o1
410002fc:	c2 04 a0 08 	ld  [ %l2 + 8 ], %g1
41000300:	85 30 60 1b 	srl  %g1, 0x1b, %g2
41000304:	83 30 60 16 	srl  %g1, 0x16, %g1
41000308:	85 28 a0 02 	sll  %g2, 2, %g2
4100030c:	82 08 60 1c 	and  %g1, 0x1c, %g1
41000310:	c2 04 00 01 	ld  [ %l0 + %g1 ], %g1
41000314:	92 10 00 12 	mov  %l2, %o1
41000318:	40 00 02 9e 	call  41000d90 <_Objects_Free>
4100031c:	d0 00 40 02 	ld  [ %g1 + %g2 ], %o0
41000320:	c2 04 61 68 	ld  [ %l1 + 0x168 ], %g1
41000324:	82 00 7f ff 	add  %g1, -1, %g1
41000328:	c2 24 61 68 	st  %g1, [ %l1 + 0x168 ]
4100032c:	c2 04 61 68 	ld  [ %l1 + 0x168 ], %g1
41000330:	80 a0 60 00 	cmp  %g1, 0
41000334:	12 80 00 04 	bne  41000344 <rtems_task_delete+0xac>
41000338:	b0 10 20 00 	clr  %i0
4100033c:	40 00 03 c2 	call  41001244 <_Thread_Dispatch>
41000340:	01 00 00 00 	nop 
41000344:	81 c7 e0 08 	ret 
41000348:	81 e8 00 00 	restore 
4100034c:	82 08 60 07 	and  %g1, 7, %g1
41000350:	80 a0 60 04 	cmp  %g1, 4
41000354:	08 80 00 04 	bleu  41000364 <rtems_task_delete+0xcc>
41000358:	85 36 20 1b 	srl  %i0, 0x1b, %g2
4100035c:	81 c7 e0 08 	ret 
41000360:	91 e8 20 04 	restore  %g0, 4, %o0
41000364:	80 a0 a0 01 	cmp  %g2, 1
41000368:	32 bf ff f7 	bne,a   41000344 <rtems_task_delete+0xac>
4100036c:	b0 10 20 04 	mov  4, %i0
41000370:	83 28 60 02 	sll  %g1, 2, %g1
41000374:	21 10 40 2a 	sethi  %hi(0x4100a800), %l0
41000378:	a0 14 20 c4 	or  %l0, 0xc4, %l0	! 4100a8c4 <_Objects_Information_table>
4100037c:	c2 04 00 01 	ld  [ %l0 + %g1 ], %g1
41000380:	d0 00 60 04 	ld  [ %g1 + 4 ], %o0
41000384:	80 a2 20 00 	cmp  %o0, 0
41000388:	02 bf ff f5 	be  4100035c <rtems_task_delete+0xc4>
4100038c:	92 10 00 18 	mov  %i0, %o1
41000390:	40 00 02 85 	call  41000da4 <_Objects_Get>
41000394:	94 07 bf fc 	add  %fp, -4, %o2
41000398:	c2 07 bf fc 	ld  [ %fp + -4 ], %g1
4100039c:	a4 10 00 08 	mov  %o0, %l2
410003a0:	80 a0 60 00 	cmp  %g1, 0
410003a4:	02 bf ff ca 	be  410002cc <rtems_task_delete+0x34>
410003a8:	23 10 40 2a 	sethi  %hi(0x4100a800), %l1
410003ac:	80 a0 60 02 	cmp  %g1, 2
410003b0:	02 bf ff eb 	be  4100035c <rtems_task_delete+0xc4>
410003b4:	b0 10 20 1a 	mov  0x1a, %i0
410003b8:	81 c7 e0 08 	ret 
410003bc:	81 e8 00 00 	restore 
410003c0:	c2 04 61 68 	ld  [ %l1 + 0x168 ], %g1
410003c4:	82 00 7f ff 	add  %g1, -1, %g1
410003c8:	c2 24 61 68 	st  %g1, [ %l1 + 0x168 ]
410003cc:	c2 04 61 68 	ld  [ %l1 + 0x168 ], %g1
410003d0:	80 a0 60 00 	cmp  %g1, 0
410003d4:	12 bf ff dc 	bne  41000344 <rtems_task_delete+0xac>
410003d8:	b0 10 20 04 	mov  4, %i0
410003dc:	40 00 03 9a 	call  41001244 <_Thread_Dispatch>
410003e0:	01 00 00 00 	nop 
410003e4:	81 c7 e0 08 	ret 
410003e8:	81 e8 00 00 	restore 

410003ec <_RTEMS_tasks_Initialize_user_tasks_body>:
410003ec:	9d e3 bf 98 	save  %sp, -104, %sp
410003f0:	03 10 40 29 	sethi  %hi(0x4100a400), %g1
410003f4:	c2 00 63 e4 	ld  [ %g1 + 0x3e4 ], %g1	! 4100a7e4 <_Configuration_Table>
410003f8:	c2 00 60 28 	ld  [ %g1 + 0x28 ], %g1
410003fc:	e4 00 60 14 	ld  [ %g1 + 0x14 ], %l2
41000400:	80 a4 a0 00 	cmp  %l2, 0
41000404:	02 80 00 2c 	be  410004b4 <_RTEMS_tasks_Initialize_user_tasks_body+0xc8>
41000408:	e0 00 60 18 	ld  [ %g1 + 0x18 ], %l0
4100040c:	a2 10 20 00 	clr  %l1
41000410:	10 80 00 0c 	b  41000440 <_RTEMS_tasks_Initialize_user_tasks_body+0x54>
41000414:	a6 07 bf fc 	add  %fp, -4, %l3
41000418:	d4 04 20 18 	ld  [ %l0 + 0x18 ], %o2
4100041c:	40 00 00 28 	call  410004bc <rtems_task_start>
41000420:	d0 07 bf fc 	ld  [ %fp + -4 ], %o0
41000424:	80 a2 20 00 	cmp  %o0, 0
41000428:	12 80 00 1c 	bne  41000498 <_RTEMS_tasks_Initialize_user_tasks_body+0xac>
4100042c:	94 10 00 08 	mov  %o0, %o2
41000430:	a2 04 60 01 	inc  %l1
41000434:	80 a4 80 11 	cmp  %l2, %l1
41000438:	08 80 00 1f 	bleu  410004b4 <_RTEMS_tasks_Initialize_user_tasks_body+0xc8>
4100043c:	a0 04 20 1c 	add  %l0, 0x1c, %l0
41000440:	d6 04 20 14 	ld  [ %l0 + 0x14 ], %o3
41000444:	d8 04 20 0c 	ld  [ %l0 + 0xc ], %o4
41000448:	d2 04 20 08 	ld  [ %l0 + 8 ], %o1
4100044c:	d4 04 20 04 	ld  [ %l0 + 4 ], %o2
41000450:	9a 10 00 13 	mov  %l3, %o5
41000454:	40 00 08 76 	call  4100262c <rtems_task_create>
41000458:	d0 04 00 00 	ld  [ %l0 ], %o0
4100045c:	80 a2 20 00 	cmp  %o0, 0
41000460:	22 bf ff ee 	be,a   41000418 <_RTEMS_tasks_Initialize_user_tasks_body+0x2c>
41000464:	d2 04 20 10 	ld  [ %l0 + 0x10 ], %o1
41000468:	94 10 00 08 	mov  %o0, %o2
4100046c:	92 10 20 01 	mov  1, %o1
41000470:	40 00 02 0c 	call  41000ca0 <_Internal_error_Occurred>
41000474:	90 10 20 01 	mov  1, %o0
41000478:	d2 04 20 10 	ld  [ %l0 + 0x10 ], %o1
4100047c:	d4 04 20 18 	ld  [ %l0 + 0x18 ], %o2
41000480:	40 00 00 0f 	call  410004bc <rtems_task_start>
41000484:	d0 07 bf fc 	ld  [ %fp + -4 ], %o0
41000488:	80 a2 20 00 	cmp  %o0, 0
4100048c:	22 bf ff ea 	be,a   41000434 <_RTEMS_tasks_Initialize_user_tasks_body+0x48>
41000490:	a2 04 60 01 	inc  %l1
41000494:	94 10 00 08 	mov  %o0, %o2
41000498:	92 10 20 01 	mov  1, %o1
4100049c:	40 00 02 01 	call  41000ca0 <_Internal_error_Occurred>
410004a0:	90 10 20 01 	mov  1, %o0
410004a4:	a2 04 60 01 	inc  %l1
410004a8:	80 a4 80 11 	cmp  %l2, %l1
410004ac:	18 bf ff e5 	bgu  41000440 <_RTEMS_tasks_Initialize_user_tasks_body+0x54>
410004b0:	a0 04 20 1c 	add  %l0, 0x1c, %l0
410004b4:	81 c7 e0 08 	ret 
410004b8:	81 e8 00 00 	restore 

410004bc <rtems_task_start>:
410004bc:	9d e3 bf 98 	save  %sp, -104, %sp
410004c0:	92 10 00 18 	mov  %i0, %o1
410004c4:	80 a6 60 00 	cmp  %i1, 0
410004c8:	02 80 00 1b 	be  41000534 <rtems_task_start+0x78>
410004cc:	b0 10 20 09 	mov  9, %i0
410004d0:	80 a2 60 00 	cmp  %o1, 0
410004d4:	12 80 00 1a 	bne  4100053c <rtems_task_start+0x80>
410004d8:	83 32 60 18 	srl  %o1, 0x18, %g1
410004dc:	21 10 40 2a 	sethi  %hi(0x4100a800), %l0
410004e0:	c2 04 21 68 	ld  [ %l0 + 0x168 ], %g1	! 4100a968 <_Thread_Dispatch_disable_level>
410004e4:	82 00 60 01 	inc  %g1
410004e8:	c2 24 21 68 	st  %g1, [ %l0 + 0x168 ]
410004ec:	03 10 40 19 	sethi  %hi(0x41006400), %g1
410004f0:	c0 27 bf fc 	clr  [ %fp + -4 ]
410004f4:	d0 00 63 94 	ld  [ %g1 + 0x394 ], %o0
410004f8:	94 10 00 19 	mov  %i1, %o2
410004fc:	98 10 00 1a 	mov  %i2, %o4
41000500:	92 10 20 00 	clr  %o1
41000504:	40 00 05 0b 	call  41001930 <_Thread_Start>
41000508:	96 10 20 00 	clr  %o3
4100050c:	80 a2 20 00 	cmp  %o0, 0
41000510:	12 80 00 14 	bne  41000560 <rtems_task_start+0xa4>
41000514:	01 00 00 00 	nop 
41000518:	c2 04 21 68 	ld  [ %l0 + 0x168 ], %g1
4100051c:	82 00 7f ff 	add  %g1, -1, %g1
41000520:	c2 24 21 68 	st  %g1, [ %l0 + 0x168 ]
41000524:	c2 04 21 68 	ld  [ %l0 + 0x168 ], %g1
41000528:	80 a0 60 00 	cmp  %g1, 0
4100052c:	02 80 00 14 	be  4100057c <rtems_task_start+0xc0>
41000530:	b0 10 20 0e 	mov  0xe, %i0
41000534:	81 c7 e0 08 	ret 
41000538:	81 e8 00 00 	restore 
4100053c:	82 08 60 07 	and  %g1, 7, %g1
41000540:	80 a0 60 04 	cmp  %g1, 4
41000544:	18 80 00 05 	bgu  41000558 <rtems_task_start+0x9c>
41000548:	85 32 60 1b 	srl  %o1, 0x1b, %g2
4100054c:	80 a0 a0 01 	cmp  %g2, 1
41000550:	02 80 00 0f 	be  4100058c <rtems_task_start+0xd0>
41000554:	83 28 60 02 	sll  %g1, 2, %g1
41000558:	81 c7 e0 08 	ret 
4100055c:	91 e8 20 04 	restore  %g0, 4, %o0
41000560:	c2 04 21 68 	ld  [ %l0 + 0x168 ], %g1
41000564:	82 00 7f ff 	add  %g1, -1, %g1
41000568:	c2 24 21 68 	st  %g1, [ %l0 + 0x168 ]
4100056c:	c2 04 21 68 	ld  [ %l0 + 0x168 ], %g1
41000570:	80 a0 60 00 	cmp  %g1, 0
41000574:	12 bf ff f0 	bne  41000534 <rtems_task_start+0x78>
41000578:	b0 10 20 00 	clr  %i0
4100057c:	40 00 03 32 	call  41001244 <_Thread_Dispatch>
41000580:	01 00 00 00 	nop 
41000584:	81 c7 e0 08 	ret 
41000588:	81 e8 00 00 	restore 
4100058c:	05 10 40 2a 	sethi  %hi(0x4100a800), %g2
41000590:	84 10 a0 c4 	or  %g2, 0xc4, %g2	! 4100a8c4 <_Objects_Information_table>
41000594:	c2 00 80 01 	ld  [ %g2 + %g1 ], %g1
41000598:	d0 00 60 04 	ld  [ %g1 + 4 ], %o0
4100059c:	80 a2 20 00 	cmp  %o0, 0
410005a0:	02 bf ff ee 	be  41000558 <rtems_task_start+0x9c>
410005a4:	01 00 00 00 	nop 
410005a8:	40 00 01 ff 	call  41000da4 <_Objects_Get>
410005ac:	94 07 bf fc 	add  %fp, -4, %o2
410005b0:	c2 07 bf fc 	ld  [ %fp + -4 ], %g1
410005b4:	80 a0 60 00 	cmp  %g1, 0
410005b8:	02 bf ff d0 	be  410004f8 <rtems_task_start+0x3c>
410005bc:	21 10 40 2a 	sethi  %hi(0x4100a800), %l0
410005c0:	80 a0 60 02 	cmp  %g1, 2
410005c4:	02 bf ff e5 	be  41000558 <rtems_task_start+0x9c>
410005c8:	b0 10 20 1a 	mov  0x1a, %i0
410005cc:	81 c7 e0 08 	ret 
410005d0:	81 e8 00 00 	restore 

410005d4 <rtems_task_wake_after>:
410005d4:	9d e3 bf a0 	save  %sp, -96, %sp
410005d8:	21 10 40 2a 	sethi  %hi(0x4100a800), %l0
410005dc:	c2 04 21 68 	ld  [ %l0 + 0x168 ], %g1	! 4100a968 <_Thread_Dispatch_disable_level>
410005e0:	82 00 60 01 	inc  %g1
410005e4:	c2 24 21 68 	st  %g1, [ %l0 + 0x168 ]
410005e8:	80 a6 20 00 	cmp  %i0, 0
410005ec:	12 80 00 0f 	bne  41000628 <rtems_task_wake_after+0x54>
410005f0:	23 10 40 19 	sethi  %hi(0x41006400), %l1
410005f4:	40 00 04 f8 	call  410019d4 <_Thread_Yield_processor>
410005f8:	01 00 00 00 	nop 
410005fc:	c2 04 21 68 	ld  [ %l0 + 0x168 ], %g1
41000600:	82 00 7f ff 	add  %g1, -1, %g1
41000604:	c2 24 21 68 	st  %g1, [ %l0 + 0x168 ]
41000608:	c2 04 21 68 	ld  [ %l0 + 0x168 ], %g1
4100060c:	80 a0 60 00 	cmp  %g1, 0
41000610:	12 80 00 04 	bne  41000620 <rtems_task_wake_after+0x4c>
41000614:	01 00 00 00 	nop 
41000618:	40 00 03 0b 	call  41001244 <_Thread_Dispatch>
4100061c:	01 00 00 00 	nop 
41000620:	81 c7 e0 08 	ret 
41000624:	91 e8 20 00 	restore  %g0, 0, %o0
41000628:	92 10 20 08 	mov  8, %o1
4100062c:	40 00 04 33 	call  410016f8 <_Thread_Set_state>
41000630:	d0 04 63 94 	ld  [ %l1 + 0x394 ], %o0
41000634:	c2 04 63 94 	ld  [ %l1 + 0x394 ], %g1
41000638:	c4 00 60 08 	ld  [ %g1 + 8 ], %g2
4100063c:	c4 20 60 90 	st  %g2, [ %g1 + 0x90 ]
41000640:	05 10 40 04 	sethi  %hi(0x41001000), %g2
41000644:	84 10 a1 88 	or  %g2, 0x188, %g2	! 41001188 <_Thread_Delay_ended>
41000648:	f0 20 60 7c 	st  %i0, [ %g1 + 0x7c ]
4100064c:	c0 20 60 78 	clr  [ %g1 + 0x78 ]
41000650:	c0 20 60 94 	clr  [ %g1 + 0x94 ]
41000654:	92 00 60 70 	add  %g1, 0x70, %o1
41000658:	c4 20 60 8c 	st  %g2, [ %g1 + 0x8c ]
4100065c:	11 10 40 2a 	sethi  %hi(0x4100a800), %o0
41000660:	40 00 05 f3 	call  41001e2c <_Watchdog_Insert>
41000664:	90 12 21 ec 	or  %o0, 0x1ec, %o0	! 4100a9ec <_Watchdog_Ticks_chain>
41000668:	30 bf ff e5 	b,a   410005fc <rtems_task_wake_after+0x28>

4100066c <rtems_initialize_executive_late>:
4100066c:	9d e3 bf a0 	save  %sp, -96, %sp
41000670:	84 10 20 02 	mov  2, %g2
41000674:	03 10 40 19 	sethi  %hi(0x41006400), %g1
41000678:	40 00 04 c1 	call  4100197c <_Thread_Start_multitasking>
4100067c:	c4 20 63 90 	st  %g2, [ %g1 + 0x390 ]	! 41006790 <_System_state_Current>
41000680:	40 00 16 e3 	call  4100620c <xky_sparc_enable_interrupts>
41000684:	81 e8 00 00 	restore 
41000688:	01 00 00 00 	nop 

4100068c <rtems_check_configuration_parameters>:
4100068c:	9d e3 bf a0 	save  %sp, -96, %sp
41000690:	80 a6 20 00 	cmp  %i0, 0
41000694:	02 80 00 59 	be  410007f8 <rtems_check_configuration_parameters+0x16c>
41000698:	90 10 20 00 	clr  %o0
4100069c:	c4 06 20 08 	ld  [ %i0 + 8 ], %g2
410006a0:	c2 06 20 20 	ld  [ %i0 + 0x20 ], %g1
410006a4:	80 a0 80 01 	cmp  %g2, %g1
410006a8:	0a 80 00 3f 	bcs  410007a4 <rtems_check_configuration_parameters+0x118>
410006ac:	90 10 20 00 	clr  %o0
410006b0:	c2 06 20 0c 	ld  [ %i0 + 0xc ], %g1
410006b4:	80 a0 60 00 	cmp  %g1, 0
410006b8:	02 80 00 36 	be  41000790 <rtems_check_configuration_parameters+0x104>
410006bc:	90 10 20 00 	clr  %o0
410006c0:	c2 06 20 10 	ld  [ %i0 + 0x10 ], %g1
410006c4:	80 a0 60 00 	cmp  %g1, 0
410006c8:	02 80 00 2d 	be  4100077c <rtems_check_configuration_parameters+0xf0>
410006cc:	90 10 20 00 	clr  %o0
410006d0:	c2 06 20 18 	ld  [ %i0 + 0x18 ], %g1
410006d4:	c4 06 20 14 	ld  [ %i0 + 0x14 ], %g2
410006d8:	80 a0 80 01 	cmp  %g2, %g1
410006dc:	0a 80 00 23 	bcs  41000768 <rtems_check_configuration_parameters+0xdc>
410006e0:	90 10 20 00 	clr  %o0
410006e4:	80 a0 60 00 	cmp  %g1, 0
410006e8:	22 80 00 07 	be,a   41000704 <rtems_check_configuration_parameters+0x78>
410006ec:	c2 06 20 20 	ld  [ %i0 + 0x20 ], %g1
410006f0:	c2 06 20 1c 	ld  [ %i0 + 0x1c ], %g1
410006f4:	80 a0 60 00 	cmp  %g1, 0
410006f8:	02 80 00 4f 	be  41000834 <rtems_check_configuration_parameters+0x1a8>
410006fc:	90 10 20 00 	clr  %o0
41000700:	c2 06 20 20 	ld  [ %i0 + 0x20 ], %g1
41000704:	80 a0 60 00 	cmp  %g1, 0
41000708:	22 80 00 07 	be,a   41000724 <rtems_check_configuration_parameters+0x98>
4100070c:	c2 06 20 28 	ld  [ %i0 + 0x28 ], %g1
41000710:	c2 06 20 24 	ld  [ %i0 + 0x24 ], %g1
41000714:	80 a0 60 00 	cmp  %g1, 0
41000718:	02 80 00 42 	be  41000820 <rtems_check_configuration_parameters+0x194>
4100071c:	90 10 20 00 	clr  %o0
41000720:	c2 06 20 28 	ld  [ %i0 + 0x28 ], %g1
41000724:	80 a0 60 00 	cmp  %g1, 0
41000728:	02 80 00 39 	be  4100080c <rtems_check_configuration_parameters+0x180>
4100072c:	90 10 20 00 	clr  %o0
41000730:	c4 00 40 00 	ld  [ %g1 ], %g2
41000734:	80 a0 a0 00 	cmp  %g2, 0
41000738:	02 80 00 2b 	be  410007e4 <rtems_check_configuration_parameters+0x158>
4100073c:	90 10 20 00 	clr  %o0
41000740:	c4 00 60 14 	ld  [ %g1 + 0x14 ], %g2
41000744:	80 a0 a0 00 	cmp  %g2, 0
41000748:	02 80 00 1c 	be  410007b8 <rtems_check_configuration_parameters+0x12c>
4100074c:	90 10 20 00 	clr  %o0
41000750:	c2 00 60 18 	ld  [ %g1 + 0x18 ], %g1
41000754:	80 a0 60 00 	cmp  %g1, 0
41000758:	02 80 00 20 	be  410007d8 <rtems_check_configuration_parameters+0x14c>
4100075c:	b0 10 20 00 	clr  %i0
41000760:	81 c7 e0 08 	ret 
41000764:	81 e8 00 00 	restore 
41000768:	92 10 20 01 	mov  1, %o1
4100076c:	40 00 01 4d 	call  41000ca0 <_Internal_error_Occurred>
41000770:	94 10 20 15 	mov  0x15, %o2
41000774:	10 bf ff dc 	b  410006e4 <rtems_check_configuration_parameters+0x58>
41000778:	c2 06 20 18 	ld  [ %i0 + 0x18 ], %g1
4100077c:	92 10 20 01 	mov  1, %o1
41000780:	40 00 01 48 	call  41000ca0 <_Internal_error_Occurred>
41000784:	94 10 20 14 	mov  0x14, %o2
41000788:	10 bf ff d3 	b  410006d4 <rtems_check_configuration_parameters+0x48>
4100078c:	c2 06 20 18 	ld  [ %i0 + 0x18 ], %g1
41000790:	92 10 20 01 	mov  1, %o1
41000794:	40 00 01 43 	call  41000ca0 <_Internal_error_Occurred>
41000798:	94 10 20 13 	mov  0x13, %o2
4100079c:	10 bf ff ca 	b  410006c4 <rtems_check_configuration_parameters+0x38>
410007a0:	c2 06 20 10 	ld  [ %i0 + 0x10 ], %g1
410007a4:	92 10 20 01 	mov  1, %o1
410007a8:	40 00 01 3e 	call  41000ca0 <_Internal_error_Occurred>
410007ac:	94 10 20 12 	mov  0x12, %o2
410007b0:	10 bf ff c1 	b  410006b4 <rtems_check_configuration_parameters+0x28>
410007b4:	c2 06 20 0c 	ld  [ %i0 + 0xc ], %g1
410007b8:	92 10 20 01 	mov  1, %o1
410007bc:	40 00 01 39 	call  41000ca0 <_Internal_error_Occurred>
410007c0:	94 10 20 1a 	mov  0x1a, %o2
410007c4:	c2 06 20 28 	ld  [ %i0 + 0x28 ], %g1
410007c8:	c2 00 60 18 	ld  [ %g1 + 0x18 ], %g1
410007cc:	80 a0 60 00 	cmp  %g1, 0
410007d0:	12 bf ff e4 	bne  41000760 <rtems_check_configuration_parameters+0xd4>
410007d4:	b0 10 20 00 	clr  %i0
410007d8:	b2 10 20 01 	mov  1, %i1
410007dc:	40 00 01 31 	call  41000ca0 <_Internal_error_Occurred>
410007e0:	95 e8 20 1b 	restore  %g0, 0x1b, %o2
410007e4:	92 10 20 01 	mov  1, %o1
410007e8:	40 00 01 2e 	call  41000ca0 <_Internal_error_Occurred>
410007ec:	94 10 20 19 	mov  0x19, %o2
410007f0:	10 bf ff d4 	b  41000740 <rtems_check_configuration_parameters+0xb4>
410007f4:	c2 06 20 28 	ld  [ %i0 + 0x28 ], %g1
410007f8:	92 10 20 01 	mov  1, %o1
410007fc:	40 00 01 29 	call  41000ca0 <_Internal_error_Occurred>
41000800:	94 10 20 00 	clr  %o2
41000804:	10 bf ff a7 	b  410006a0 <rtems_check_configuration_parameters+0x14>
41000808:	c4 06 20 08 	ld  [ %i0 + 8 ], %g2
4100080c:	92 10 20 01 	mov  1, %o1
41000810:	40 00 01 24 	call  41000ca0 <_Internal_error_Occurred>
41000814:	94 10 20 18 	mov  0x18, %o2
41000818:	10 bf ff c6 	b  41000730 <rtems_check_configuration_parameters+0xa4>
4100081c:	c2 06 20 28 	ld  [ %i0 + 0x28 ], %g1
41000820:	92 10 20 01 	mov  1, %o1
41000824:	40 00 01 1f 	call  41000ca0 <_Internal_error_Occurred>
41000828:	94 10 20 17 	mov  0x17, %o2
4100082c:	10 bf ff be 	b  41000724 <rtems_check_configuration_parameters+0x98>
41000830:	c2 06 20 28 	ld  [ %i0 + 0x28 ], %g1
41000834:	92 10 20 01 	mov  1, %o1
41000838:	40 00 01 1a 	call  41000ca0 <_Internal_error_Occurred>
4100083c:	94 10 20 16 	mov  0x16, %o2
41000840:	10 bf ff b1 	b  41000704 <rtems_check_configuration_parameters+0x78>
41000844:	c2 06 20 20 	ld  [ %i0 + 0x20 ], %g1

41000848 <rtems_initialize_executive_early>:
41000848:	9d e3 bf a0 	save  %sp, -96, %sp
4100084c:	25 10 40 19 	sethi  %hi(0x41006400), %l2
41000850:	a0 10 00 18 	mov  %i0, %l0
41000854:	40 00 16 6a 	call  410061fc <xky_sparc_disable_interrupts>
41000858:	c0 24 a3 90 	clr  [ %l2 + 0x390 ]
4100085c:	b0 10 00 08 	mov  %o0, %i0
41000860:	80 a6 60 00 	cmp  %i1, 0
41000864:	02 80 00 66 	be  410009fc <rtems_initialize_executive_early+0x1b4>
41000868:	90 10 20 00 	clr  %o0
4100086c:	c2 06 40 00 	ld  [ %i1 ], %g1
41000870:	23 10 40 29 	sethi  %hi(0x4100a400), %l1
41000874:	c2 24 63 c0 	st  %g1, [ %l1 + 0x3c0 ]	! 4100a7c0 <_CPU_Table>
41000878:	c2 06 60 04 	ld  [ %i1 + 4 ], %g1
4100087c:	a2 14 63 c0 	or  %l1, 0x3c0, %l1
41000880:	c2 24 60 04 	st  %g1, [ %l1 + 4 ]
41000884:	03 10 40 29 	sethi  %hi(0x4100a400), %g1
41000888:	e0 20 63 e4 	st  %l0, [ %g1 + 0x3e4 ]	! 4100a7e4 <_Configuration_Table>
4100088c:	c2 06 60 08 	ld  [ %i1 + 8 ], %g1
41000890:	c2 24 60 08 	st  %g1, [ %l1 + 8 ]
41000894:	c2 06 60 0c 	ld  [ %i1 + 0xc ], %g1
41000898:	c2 24 60 0c 	st  %g1, [ %l1 + 0xc ]
4100089c:	c2 06 60 10 	ld  [ %i1 + 0x10 ], %g1
410008a0:	c2 24 60 10 	st  %g1, [ %l1 + 0x10 ]
410008a4:	c2 06 60 14 	ld  [ %i1 + 0x14 ], %g1
410008a8:	c2 24 60 14 	st  %g1, [ %l1 + 0x14 ]
410008ac:	c2 06 60 18 	ld  [ %i1 + 0x18 ], %g1
410008b0:	c2 24 60 18 	st  %g1, [ %l1 + 0x18 ]
410008b4:	c2 06 60 1c 	ld  [ %i1 + 0x1c ], %g1
410008b8:	90 10 00 19 	mov  %i1, %o0
410008bc:	c2 24 60 1c 	st  %g1, [ %l1 + 0x1c ]
410008c0:	13 10 40 04 	sethi  %hi(0x41001000), %o1
410008c4:	c2 06 60 20 	ld  [ %i1 + 0x20 ], %g1
410008c8:	92 12 62 44 	or  %o1, 0x244, %o1
410008cc:	40 00 06 61 	call  41002250 <_CPU_Initialize>
410008d0:	c2 24 60 20 	st  %g1, [ %l1 + 0x20 ]
410008d4:	40 00 00 a2 	call  41000b5c <_API_extensions_Initialization>
410008d8:	01 00 00 00 	nop 
410008dc:	84 10 20 01 	mov  1, %g2	! 1 <PROM_START+0x1>
410008e0:	03 10 40 2a 	sethi  %hi(0x4100a800), %g1
410008e4:	d2 04 20 04 	ld  [ %l0 + 4 ], %o1
410008e8:	d0 04 00 00 	ld  [ %l0 ], %o0
410008ec:	c4 20 61 68 	st  %g2, [ %g1 + 0x168 ]
410008f0:	40 00 05 ec 	call  410020a0 <_Workspace_Handler_initialization>
410008f4:	01 00 00 00 	nop 
410008f8:	d0 04 20 20 	ld  [ %l0 + 0x20 ], %o0
410008fc:	40 00 04 61 	call  41001a80 <_User_extensions_Handler_initialization>
41000900:	d2 04 20 24 	ld  [ %l0 + 0x24 ], %o1
41000904:	40 00 01 06 	call  41000d1c <_ISR_Handler_initialization>
41000908:	01 00 00 00 	nop 
4100090c:	40 00 01 1f 	call  41000d88 <_Objects_Handler_initialization>
41000910:	01 00 00 00 	nop 
41000914:	03 10 40 2a 	sethi  %hi(0x4100a800), %g1
41000918:	05 10 40 19 	sethi  %hi(0x41006400), %g2
4100091c:	84 10 a3 80 	or  %g2, 0x380, %g2	! 41006780 <_Internal_Objects>
41000920:	c4 20 60 c8 	st  %g2, [ %g1 + 0xc8 ]
41000924:	03 10 40 29 	sethi  %hi(0x4100a400), %g1
41000928:	c0 30 63 e8 	clrh  [ %g1 + 0x3e8 ]	! 4100a7e8 <_Priority_Major_bit_map>
4100092c:	03 10 40 29 	sethi  %hi(0x4100a400), %g1
41000930:	82 10 63 f0 	or  %g1, 0x3f0, %g1	! 4100a7f0 <_Priority_Bit_map>
41000934:	84 00 60 20 	add  %g1, 0x20, %g2
41000938:	c0 30 40 00 	clrh  [ %g1 ]
4100093c:	82 00 60 02 	add  %g1, 2, %g1
41000940:	80 a0 40 02 	cmp  %g1, %g2
41000944:	32 bf ff fe 	bne,a   4100093c <rtems_initialize_executive_early+0xf4>
41000948:	c0 30 40 00 	clrh  [ %g1 ]
4100094c:	40 00 05 23 	call  41001dd8 <_Watchdog_Handler_initialization>
41000950:	01 00 00 00 	nop 
41000954:	40 00 00 c4 	call  41000c64 <_TOD_Handler_initialization>
41000958:	d0 04 20 0c 	ld  [ %l0 + 0xc ], %o0
4100095c:	d2 04 20 08 	ld  [ %l0 + 8 ], %o1
41000960:	40 00 01 68 	call  41000f00 <_Thread_Handler_initialization>
41000964:	d0 04 20 10 	ld  [ %l0 + 0x10 ], %o0
41000968:	40 00 00 68 	call  41000b08 <_RTEMS_API_Initialize>
4100096c:	90 10 00 10 	mov  %l0, %o0
41000970:	40 00 00 28 	call  41000a10 <_Extension_Manager_initialization>
41000974:	d0 04 20 08 	ld  [ %l0 + 8 ], %o0
41000978:	d4 04 20 14 	ld  [ %l0 + 0x14 ], %o2
4100097c:	d0 04 20 1c 	ld  [ %l0 + 0x1c ], %o0
41000980:	40 00 00 31 	call  41000a44 <_IO_Manager_initialization>
41000984:	d2 04 20 18 	ld  [ %l0 + 0x18 ], %o1
41000988:	82 10 20 01 	mov  1, %g1
4100098c:	40 00 01 d7 	call  410010e8 <_Thread_Create_idle>
41000990:	c2 24 a3 90 	st  %g1, [ %l2 + 0x390 ]
41000994:	c2 06 40 00 	ld  [ %i1 ], %g1
41000998:	80 a0 60 00 	cmp  %g1, 0
4100099c:	02 80 00 04 	be  410009ac <rtems_initialize_executive_early+0x164>
410009a0:	01 00 00 00 	nop 
410009a4:	9f c0 40 00 	call  %g1
410009a8:	01 00 00 00 	nop 
410009ac:	40 00 00 73 	call  41000b78 <_API_extensions_Run_predriver>
410009b0:	01 00 00 00 	nop 
410009b4:	c2 04 60 04 	ld  [ %l1 + 4 ], %g1
410009b8:	80 a0 60 00 	cmp  %g1, 0
410009bc:	02 80 00 04 	be  410009cc <rtems_initialize_executive_early+0x184>
410009c0:	01 00 00 00 	nop 
410009c4:	9f c0 40 00 	call  %g1
410009c8:	01 00 00 00 	nop 
410009cc:	40 00 00 26 	call  41000a64 <_IO_Initialize_all_drivers>
410009d0:	01 00 00 00 	nop 
410009d4:	40 00 00 7d 	call  41000bc8 <_API_extensions_Run_postdriver>
410009d8:	01 00 00 00 	nop 
410009dc:	c2 04 60 08 	ld  [ %l1 + 8 ], %g1
410009e0:	80 a0 60 00 	cmp  %g1, 0
410009e4:	02 80 00 04 	be  410009f4 <rtems_initialize_executive_early+0x1ac>
410009e8:	01 00 00 00 	nop 
410009ec:	9f c0 40 00 	call  %g1
410009f0:	01 00 00 00 	nop 
410009f4:	81 c7 e0 08 	ret 
410009f8:	81 e8 00 00 	restore 
410009fc:	92 10 20 01 	mov  1, %o1
41000a00:	40 00 00 a8 	call  41000ca0 <_Internal_error_Occurred>
41000a04:	94 10 20 01 	mov  1, %o2
41000a08:	10 bf ff 9a 	b  41000870 <rtems_initialize_executive_early+0x28>
41000a0c:	c2 06 40 00 	ld  [ %i1 ], %g1

41000a10 <_Extension_Manager_initialization>:
41000a10:	9d e3 bf 98 	save  %sp, -104, %sp
41000a14:	82 10 20 04 	mov  4, %g1
41000a18:	96 10 00 18 	mov  %i0, %o3
41000a1c:	c2 23 a0 5c 	st  %g1, [ %sp + 0x5c ]
41000a20:	11 10 40 2a 	sethi  %hi(0x4100a800), %o0
41000a24:	92 10 20 02 	mov  2, %o1
41000a28:	90 12 20 10 	or  %o0, 0x10, %o0
41000a2c:	94 10 20 09 	mov  9, %o2
41000a30:	98 10 20 44 	mov  0x44, %o4
41000a34:	40 00 01 01 	call  41000e38 <_Objects_Initialize_information>
41000a38:	9a 10 20 00 	clr  %o5
41000a3c:	81 c7 e0 08 	ret 
41000a40:	81 e8 00 00 	restore 

41000a44 <_IO_Manager_initialization>:
41000a44:	03 10 40 2a 	sethi  %hi(0x4100a800), %g1
41000a48:	80 a2 80 09 	cmp  %o2, %o1
41000a4c:	1a 80 00 03 	bcc  41000a58 <_IO_Manager_initialization+0x14>
41000a50:	d0 20 60 5c 	st  %o0, [ %g1 + 0x5c ]
41000a54:	94 10 00 09 	mov  %o1, %o2
41000a58:	03 10 40 2a 	sethi  %hi(0x4100a800), %g1
41000a5c:	81 c3 e0 08 	retl 
41000a60:	d4 20 60 58 	st  %o2, [ %g1 + 0x58 ]	! 4100a858 <_IO_Number_of_drivers>

41000a64 <_IO_Initialize_all_drivers>:
41000a64:	9d e3 bf a0 	save  %sp, -96, %sp
41000a68:	23 10 40 2a 	sethi  %hi(0x4100a800), %l1
41000a6c:	c2 04 60 58 	ld  [ %l1 + 0x58 ], %g1	! 4100a858 <_IO_Number_of_drivers>
41000a70:	80 a0 60 00 	cmp  %g1, 0
41000a74:	02 80 00 0c 	be  41000aa4 <_IO_Initialize_all_drivers+0x40>
41000a78:	a2 14 60 58 	or  %l1, 0x58, %l1
41000a7c:	a0 10 20 00 	clr  %l0
41000a80:	90 10 00 10 	mov  %l0, %o0
41000a84:	92 10 20 00 	clr  %o1
41000a88:	40 00 00 09 	call  41000aac <rtems_io_initialize>
41000a8c:	94 10 20 00 	clr  %o2
41000a90:	a0 04 20 01 	inc  %l0
41000a94:	c2 04 40 00 	ld  [ %l1 ], %g1
41000a98:	80 a0 40 10 	cmp  %g1, %l0
41000a9c:	18 bf ff fa 	bgu  41000a84 <_IO_Initialize_all_drivers+0x20>
41000aa0:	90 10 00 10 	mov  %l0, %o0
41000aa4:	81 c7 e0 08 	ret 
41000aa8:	81 e8 00 00 	restore 

41000aac <rtems_io_initialize>:
41000aac:	9d e3 bf a0 	save  %sp, -96, %sp
41000ab0:	03 10 40 2a 	sethi  %hi(0x4100a800), %g1
41000ab4:	84 10 00 18 	mov  %i0, %g2
41000ab8:	c2 00 60 58 	ld  [ %g1 + 0x58 ], %g1
41000abc:	80 a0 40 18 	cmp  %g1, %i0
41000ac0:	08 80 00 10 	bleu  41000b00 <rtems_io_initialize+0x54>
41000ac4:	b0 10 20 0a 	mov  0xa, %i0
41000ac8:	03 10 40 2a 	sethi  %hi(0x4100a800), %g1
41000acc:	c6 00 60 5c 	ld  [ %g1 + 0x5c ], %g3	! 4100a85c <_IO_Driver_address_table>
41000ad0:	82 00 80 02 	add  %g2, %g2, %g1
41000ad4:	82 00 40 02 	add  %g1, %g2, %g1
41000ad8:	83 28 60 03 	sll  %g1, 3, %g1
41000adc:	c2 00 c0 01 	ld  [ %g3 + %g1 ], %g1
41000ae0:	80 a0 60 00 	cmp  %g1, 0
41000ae4:	02 80 00 07 	be  41000b00 <rtems_io_initialize+0x54>
41000ae8:	b0 10 20 00 	clr  %i0
41000aec:	90 10 00 02 	mov  %g2, %o0
41000af0:	92 10 00 19 	mov  %i1, %o1
41000af4:	9f c0 40 00 	call  %g1
41000af8:	94 10 00 1a 	mov  %i2, %o2
41000afc:	b0 10 00 08 	mov  %o0, %i0
41000b00:	81 c7 e0 08 	ret 
41000b04:	81 e8 00 00 	restore 

41000b08 <_RTEMS_API_Initialize>:
41000b08:	9d e3 bf a0 	save  %sp, -96, %sp
41000b0c:	03 10 40 2a 	sethi  %hi(0x4100a800), %g1
41000b10:	05 10 40 2a 	sethi  %hi(0x4100a800), %g2
41000b14:	84 10 a0 60 	or  %g2, 0x60, %g2	! 4100a860 <_RTEMS_Objects>
41000b18:	e0 06 20 28 	ld  [ %i0 + 0x28 ], %l0
41000b1c:	40 00 06 c2 	call  41002624 <_Interrupt_Manager_initialization>
41000b20:	c4 20 60 cc 	st  %g2, [ %g1 + 0xcc ]
41000b24:	40 00 07 40 	call  41002824 <_RTEMS_tasks_Manager_initialization>
41000b28:	d0 04 00 00 	ld  [ %l0 ], %o0
41000b2c:	40 00 0d f2 	call  410042f4 <_Timer_Manager_initialization>
41000b30:	d0 04 20 04 	ld  [ %l0 + 4 ], %o0
41000b34:	40 00 0d ff 	call  41004330 <_Event_Manager_initialization>
41000b38:	01 00 00 00 	nop 
41000b3c:	40 00 0d c7 	call  41004258 <_Message_queue_Manager_initialization>
41000b40:	d0 04 20 0c 	ld  [ %l0 + 0xc ], %o0
41000b44:	40 00 0d df 	call  410042c0 <_Semaphore_Manager_initialization>
41000b48:	d0 04 20 08 	ld  [ %l0 + 8 ], %o0
41000b4c:	f0 04 20 10 	ld  [ %l0 + 0x10 ], %i0
41000b50:	40 00 0d cf 	call  4100428c <_Rate_monotonic_Manager_initialization>
41000b54:	81 e8 00 00 	restore 
41000b58:	01 00 00 00 	nop 

41000b5c <_API_extensions_Initialization>:
41000b5c:	05 10 40 2a 	sethi  %hi(0x4100a800), %g2
41000b60:	82 10 a0 8c 	or  %g2, 0x8c, %g1	! 4100a88c <_API_extensions_List>
41000b64:	c2 20 60 08 	st  %g1, [ %g1 + 8 ]
41000b68:	c0 20 60 04 	clr  [ %g1 + 4 ]
41000b6c:	82 00 60 04 	add  %g1, 4, %g1
41000b70:	81 c3 e0 08 	retl 
41000b74:	c2 20 a0 8c 	st  %g1, [ %g2 + 0x8c ]

41000b78 <_API_extensions_Run_predriver>:
41000b78:	9d e3 bf a0 	save  %sp, -96, %sp
41000b7c:	23 10 40 2a 	sethi  %hi(0x4100a800), %l1
41000b80:	e0 04 60 8c 	ld  [ %l1 + 0x8c ], %l0	! 4100a88c <_API_extensions_List>
41000b84:	a2 14 60 8c 	or  %l1, 0x8c, %l1
41000b88:	a2 04 60 04 	add  %l1, 4, %l1
41000b8c:	80 a4 00 11 	cmp  %l0, %l1
41000b90:	02 80 00 0c 	be  41000bc0 <_API_extensions_Run_predriver+0x48>
41000b94:	01 00 00 00 	nop 
41000b98:	c2 04 20 08 	ld  [ %l0 + 8 ], %g1
41000b9c:	80 a0 60 00 	cmp  %g1, 0
41000ba0:	22 80 00 05 	be,a   41000bb4 <_API_extensions_Run_predriver+0x3c>
41000ba4:	e0 04 00 00 	ld  [ %l0 ], %l0
41000ba8:	9f c0 40 00 	call  %g1
41000bac:	01 00 00 00 	nop 
41000bb0:	e0 04 00 00 	ld  [ %l0 ], %l0
41000bb4:	80 a4 00 11 	cmp  %l0, %l1
41000bb8:	32 bf ff f9 	bne,a   41000b9c <_API_extensions_Run_predriver+0x24>
41000bbc:	c2 04 20 08 	ld  [ %l0 + 8 ], %g1
41000bc0:	81 c7 e0 08 	ret 
41000bc4:	81 e8 00 00 	restore 

41000bc8 <_API_extensions_Run_postdriver>:
41000bc8:	9d e3 bf a0 	save  %sp, -96, %sp
41000bcc:	23 10 40 2a 	sethi  %hi(0x4100a800), %l1
41000bd0:	e0 04 60 8c 	ld  [ %l1 + 0x8c ], %l0	! 4100a88c <_API_extensions_List>
41000bd4:	a2 14 60 8c 	or  %l1, 0x8c, %l1
41000bd8:	a2 04 60 04 	add  %l1, 4, %l1
41000bdc:	80 a4 00 11 	cmp  %l0, %l1
41000be0:	02 80 00 0c 	be  41000c10 <_API_extensions_Run_postdriver+0x48>
41000be4:	01 00 00 00 	nop 
41000be8:	c2 04 20 0c 	ld  [ %l0 + 0xc ], %g1
41000bec:	80 a0 60 00 	cmp  %g1, 0
41000bf0:	22 80 00 05 	be,a   41000c04 <_API_extensions_Run_postdriver+0x3c>
41000bf4:	e0 04 00 00 	ld  [ %l0 ], %l0
41000bf8:	9f c0 40 00 	call  %g1
41000bfc:	01 00 00 00 	nop 
41000c00:	e0 04 00 00 	ld  [ %l0 ], %l0
41000c04:	80 a4 00 11 	cmp  %l0, %l1
41000c08:	32 bf ff f9 	bne,a   41000bec <_API_extensions_Run_postdriver+0x24>
41000c0c:	c2 04 20 0c 	ld  [ %l0 + 0xc ], %g1
41000c10:	81 c7 e0 08 	ret 
41000c14:	81 e8 00 00 	restore 

41000c18 <_API_extensions_Add>:
41000c18:	92 10 00 08 	mov  %o0, %o1
41000c1c:	11 10 40 2a 	sethi  %hi(0x4100a800), %o0
41000c20:	90 12 20 8c 	or  %o0, 0x8c, %o0	! 4100a88c <_API_extensions_List>
41000c24:	82 13 c0 00 	mov  %o7, %g1
41000c28:	40 00 00 03 	call  41000c34 <_Chain_Append>
41000c2c:	9e 10 40 00 	mov  %g1, %o7
41000c30:	01 00 00 00 	nop 

41000c34 <_Chain_Append>:
41000c34:	9d e3 bf a0 	save  %sp, -96, %sp
41000c38:	40 00 15 71 	call  410061fc <xky_sparc_disable_interrupts>
41000c3c:	01 00 00 00 	nop 
41000c40:	82 06 20 04 	add  %i0, 4, %g1
41000c44:	c2 26 40 00 	st  %g1, [ %i1 ]
41000c48:	c2 06 20 08 	ld  [ %i0 + 8 ], %g1
41000c4c:	f2 26 20 08 	st  %i1, [ %i0 + 8 ]
41000c50:	c2 26 60 04 	st  %g1, [ %i1 + 4 ]
41000c54:	f2 20 40 00 	st  %i1, [ %g1 ]
41000c58:	40 00 15 6d 	call  4100620c <xky_sparc_enable_interrupts>
41000c5c:	91 e8 00 08 	restore  %g0, %o0, %o0
41000c60:	01 00 00 00 	nop 

41000c64 <_TOD_Handler_initialization>:
41000c64:	07 10 40 2a 	sethi  %hi(0x4100a800), %g3
41000c68:	05 10 40 2a 	sethi  %hi(0x4100a800), %g2
41000c6c:	03 10 40 2a 	sethi  %hi(0x4100a800), %g1
41000c70:	d0 20 e0 ac 	st  %o0, [ %g3 + 0xac ]
41000c74:	c0 20 60 9c 	clr  [ %g1 + 0x9c ]
41000c78:	86 10 a0 a4 	or  %g2, 0xa4, %g3
41000c7c:	82 10 60 9c 	or  %g1, 0x9c, %g1
41000c80:	c0 20 e0 04 	clr  [ %g3 + 4 ]
41000c84:	c0 20 60 04 	clr  [ %g1 + 4 ]
41000c88:	07 08 76 b9 	sethi  %hi(0x21dae400), %g3
41000c8c:	03 10 40 2a 	sethi  %hi(0x4100a800), %g1
41000c90:	86 10 e1 00 	or  %g3, 0x100, %g3
41000c94:	c0 20 60 98 	clr  [ %g1 + 0x98 ]
41000c98:	81 c3 e0 08 	retl 
41000c9c:	c6 20 a0 a4 	st  %g3, [ %g2 + 0xa4 ]

41000ca0 <_Internal_error_Occurred>:
41000ca0:	9d e3 bf a0 	save  %sp, -96, %sp
41000ca4:	03 10 40 2a 	sethi  %hi(0x4100a800), %g1
41000ca8:	f0 20 60 b0 	st  %i0, [ %g1 + 0xb0 ]	! 4100a8b0 <Internal_errors_What_happened>
41000cac:	82 10 60 b0 	or  %g1, 0xb0, %g1
41000cb0:	f4 20 60 08 	st  %i2, [ %g1 + 8 ]
41000cb4:	f2 20 60 04 	st  %i1, [ %g1 + 4 ]
41000cb8:	23 10 40 19 	sethi  %hi(0x41006400), %l1
41000cbc:	e4 04 63 90 	ld  [ %l1 + 0x390 ], %l2	! 41006790 <_System_state_Current>
41000cc0:	80 a4 a0 03 	cmp  %l2, 3
41000cc4:	02 80 00 11 	be  41000d08 <_Internal_error_Occurred+0x68>
41000cc8:	a0 10 00 18 	mov  %i0, %l0
41000ccc:	40 00 15 4c 	call  410061fc <xky_sparc_disable_interrupts>
41000cd0:	01 00 00 00 	nop 
41000cd4:	b0 10 00 08 	mov  %o0, %i0
41000cd8:	82 10 20 04 	mov  4, %g1
41000cdc:	c2 24 63 90 	st  %g1, [ %l1 + 0x390 ]
41000ce0:	90 10 00 10 	mov  %l0, %o0
41000ce4:	92 10 00 19 	mov  %i1, %o1
41000ce8:	7f ff fd 24 	call  41000178 <app_safe_state_handler>
41000cec:	94 10 00 1a 	mov  %i2, %o2
41000cf0:	80 a2 20 00 	cmp  %o0, 0
41000cf4:	02 bf ff fc 	be  41000ce4 <_Internal_error_Occurred+0x44>
41000cf8:	90 10 00 10 	mov  %l0, %o0
41000cfc:	e4 24 63 90 	st  %l2, [ %l1 + 0x390 ]
41000d00:	40 00 15 43 	call  4100620c <xky_sparc_enable_interrupts>
41000d04:	81 e8 00 00 	restore 
41000d08:	90 10 00 18 	mov  %i0, %o0
41000d0c:	92 10 00 19 	mov  %i1, %o1
41000d10:	40 00 03 c5 	call  41001c24 <_User_extensions_Fatal>
41000d14:	94 10 00 1a 	mov  %i2, %o2
41000d18:	30 bf ff ed 	b,a   41000ccc <_Internal_error_Occurred+0x2c>

41000d1c <_ISR_Handler_initialization>:
41000d1c:	9d e3 bf a0 	save  %sp, -96, %sp
41000d20:	03 10 40 2a 	sethi  %hi(0x4100a800), %g1
41000d24:	90 10 24 00 	mov  0x400, %o0
41000d28:	c0 20 60 c0 	clr  [ %g1 + 0xc0 ]
41000d2c:	40 00 04 d1 	call  41002070 <_Workspace_Allocate_or_fatal_error>
41000d30:	21 10 40 29 	sethi  %hi(0x4100a400), %l0
41000d34:	03 10 40 2a 	sethi  %hi(0x4100a800), %g1
41000d38:	d0 20 60 bc 	st  %o0, [ %g1 + 0xbc ]	! 4100a8bc <_ISR_Vector_table>
41000d3c:	a0 14 23 c0 	or  %l0, 0x3c0, %l0
41000d40:	d0 04 20 18 	ld  [ %l0 + 0x18 ], %o0
41000d44:	80 a2 2f ff 	cmp  %o0, 0xfff
41000d48:	18 80 00 06 	bgu  41000d60 <_ISR_Handler_initialization+0x44>
41000d4c:	92 10 20 01 	mov  1, %o1
41000d50:	90 10 20 00 	clr  %o0
41000d54:	7f ff ff d3 	call  41000ca0 <_Internal_error_Occurred>
41000d58:	94 10 20 05 	mov  5, %o2
41000d5c:	d0 04 20 18 	ld  [ %l0 + 0x18 ], %o0
41000d60:	40 00 04 c4 	call  41002070 <_Workspace_Allocate_or_fatal_error>
41000d64:	01 00 00 00 	nop 
41000d68:	03 10 40 2a 	sethi  %hi(0x4100a800), %g1
41000d6c:	c4 04 20 18 	ld  [ %l0 + 0x18 ], %g2
41000d70:	d0 20 62 38 	st  %o0, [ %g1 + 0x238 ]
41000d74:	84 02 00 02 	add  %o0, %g2, %g2
41000d78:	03 10 40 2a 	sethi  %hi(0x4100a800), %g1
41000d7c:	c4 20 62 34 	st  %g2, [ %g1 + 0x234 ]	! 4100aa34 <_CPU_Interrupt_stack_high>
41000d80:	81 c7 e0 08 	ret 
41000d84:	81 e8 00 00 	restore 

41000d88 <_Objects_Handler_initialization>:
41000d88:	81 c3 e0 08 	retl 
41000d8c:	01 00 00 00 	nop 

41000d90 <_Objects_Free>:
41000d90:	90 02 20 24 	add  %o0, 0x24, %o0
41000d94:	82 13 c0 00 	mov  %o7, %g1
41000d98:	7f ff ff a7 	call  41000c34 <_Chain_Append>
41000d9c:	9e 10 40 00 	mov  %g1, %o7
41000da0:	01 00 00 00 	nop 

41000da4 <_Objects_Get>:
41000da4:	9d e3 bf a0 	save  %sp, -96, %sp
41000da8:	c2 06 20 08 	ld  [ %i0 + 8 ], %g1
41000dac:	c4 16 20 10 	lduh  [ %i0 + 0x10 ], %g2
41000db0:	82 26 40 01 	sub  %i1, %g1, %g1
41000db4:	82 00 60 01 	inc  %g1
41000db8:	80 a0 40 02 	cmp  %g1, %g2
41000dbc:	18 80 00 0e 	bgu  41000df4 <_Objects_Get+0x50>
41000dc0:	05 10 40 2a 	sethi  %hi(0x4100a800), %g2
41000dc4:	c6 00 a1 68 	ld  [ %g2 + 0x168 ], %g3	! 4100a968 <_Thread_Dispatch_disable_level>
41000dc8:	86 00 e0 01 	inc  %g3
41000dcc:	c6 20 a1 68 	st  %g3, [ %g2 + 0x168 ]
41000dd0:	c6 06 20 1c 	ld  [ %i0 + 0x1c ], %g3
41000dd4:	83 28 60 02 	sll  %g1, 2, %g1
41000dd8:	f0 00 c0 01 	ld  [ %g3 + %g1 ], %i0
41000ddc:	80 a6 20 00 	cmp  %i0, 0
41000de0:	02 80 00 09 	be  41000e04 <_Objects_Get+0x60>
41000de4:	01 00 00 00 	nop 
41000de8:	c0 26 80 00 	clr  [ %i2 ]
41000dec:	81 c7 e0 08 	ret 
41000df0:	81 e8 00 00 	restore 
41000df4:	82 10 20 02 	mov  2, %g1
41000df8:	c2 26 80 00 	st  %g1, [ %i2 ]
41000dfc:	81 c7 e0 08 	ret 
41000e00:	91 e8 20 00 	restore  %g0, 0, %o0
41000e04:	c2 00 a1 68 	ld  [ %g2 + 0x168 ], %g1
41000e08:	82 00 7f ff 	add  %g1, -1, %g1
41000e0c:	c2 20 a1 68 	st  %g1, [ %g2 + 0x168 ]
41000e10:	c2 00 a1 68 	ld  [ %g2 + 0x168 ], %g1
41000e14:	80 a0 60 00 	cmp  %g1, 0
41000e18:	12 80 00 05 	bne  41000e2c <_Objects_Get+0x88>
41000e1c:	82 10 20 02 	mov  2, %g1
41000e20:	40 00 01 09 	call  41001244 <_Thread_Dispatch>
41000e24:	01 00 00 00 	nop 
41000e28:	82 10 20 02 	mov  2, %g1	! 2 <PROM_START+0x2>
41000e2c:	c2 26 80 00 	st  %g1, [ %i2 ]
41000e30:	81 c7 e0 08 	ret 
41000e34:	81 e8 00 00 	restore 

41000e38 <_Objects_Initialize_information>:
41000e38:	87 2b 20 10 	sll  %o4, 0x10, %g3
41000e3c:	87 30 e0 10 	srl  %g3, 0x10, %g3
41000e40:	80 a0 00 0b 	cmp  %g0, %o3
41000e44:	85 2a a0 10 	sll  %o2, 0x10, %g2
41000e48:	82 40 20 00 	addx  %g0, 0, %g1
41000e4c:	85 30 a0 10 	srl  %g2, 0x10, %g2
41000e50:	c6 22 20 18 	st  %g3, [ %o0 + 0x18 ]
41000e54:	89 28 a0 1b 	sll  %g2, 0x1b, %g4
41000e58:	87 2a 60 18 	sll  %o1, 0x18, %g3
41000e5c:	85 28 a0 02 	sll  %g2, 2, %g2
41000e60:	86 11 00 03 	or  %g4, %g3, %g3
41000e64:	86 10 c0 01 	or  %g3, %g1, %g3
41000e68:	d2 22 00 00 	st  %o1, [ %o0 ]
41000e6c:	c6 22 20 08 	st  %g3, [ %o0 + 8 ]
41000e70:	93 2a 60 02 	sll  %o1, 2, %o1
41000e74:	07 10 40 2a 	sethi  %hi(0x4100a800), %g3
41000e78:	da 22 20 3c 	st  %o5, [ %o0 + 0x3c ]
41000e7c:	86 10 e0 c4 	or  %g3, 0xc4, %g3
41000e80:	d4 32 20 04 	sth  %o2, [ %o0 + 4 ]
41000e84:	c6 00 c0 09 	ld  [ %g3 + %o1 ], %g3
41000e88:	c0 22 20 20 	clr  [ %o0 + 0x20 ]
41000e8c:	d0 20 c0 02 	st  %o0, [ %g3 + %g2 ]
41000e90:	c0 22 20 34 	clr  [ %o0 + 0x34 ]
41000e94:	05 10 40 19 	sethi  %hi(0x41006400), %g2
41000e98:	c0 22 20 38 	clr  [ %o0 + 0x38 ]
41000e9c:	84 10 a3 8c 	or  %g2, 0x38c, %g2
41000ea0:	c0 32 20 30 	clrh  [ %o0 + 0x30 ]
41000ea4:	c4 22 20 1c 	st  %g2, [ %o0 + 0x1c ]
41000ea8:	d6 22 20 14 	st  %o3, [ %o0 + 0x14 ]
41000eac:	c4 03 a0 5c 	ld  [ %sp + 0x5c ], %g2
41000eb0:	86 00 a0 04 	add  %g2, 4, %g3
41000eb4:	80 88 a0 03 	btst  3, %g2
41000eb8:	12 80 00 03 	bne  41000ec4 <_Objects_Initialize_information+0x8c>
41000ebc:	86 08 ff fc 	and  %g3, -4, %g3
41000ec0:	86 10 00 02 	mov  %g2, %g3
41000ec4:	84 02 20 28 	add  %o0, 0x28, %g2
41000ec8:	c6 32 20 40 	sth  %g3, [ %o0 + 0x40 ]
41000ecc:	c4 22 20 24 	st  %g2, [ %o0 + 0x24 ]
41000ed0:	c0 22 20 28 	clr  [ %o0 + 0x28 ]
41000ed4:	84 02 20 24 	add  %o0, 0x24, %g2
41000ed8:	80 a0 60 00 	cmp  %g1, 0
41000edc:	12 80 00 04 	bne  41000eec <_Objects_Initialize_information+0xb4>
41000ee0:	c4 22 20 2c 	st  %g2, [ %o0 + 0x2c ]
41000ee4:	81 c3 e0 08 	retl 
41000ee8:	01 00 00 00 	nop 
41000eec:	c0 32 20 10 	clrh  [ %o0 + 0x10 ]
41000ef0:	82 13 c0 00 	mov  %o7, %g1
41000ef4:	40 00 08 fd 	call  410032e8 <_Objects_Extend_information>
41000ef8:	9e 10 40 00 	mov  %g1, %o7
41000efc:	01 00 00 00 	nop 

41000f00 <_Thread_Handler_initialization>:
41000f00:	9d e3 bf 98 	save  %sp, -104, %sp
41000f04:	03 10 40 29 	sethi  %hi(0x4100a400), %g1
41000f08:	82 10 63 c0 	or  %g1, 0x3c0, %g1	! 4100a7c0 <_CPU_Table>
41000f0c:	c4 00 60 20 	ld  [ %g1 + 0x20 ], %g2
41000f10:	80 a0 00 02 	cmp  %g0, %g2
41000f14:	c4 00 60 1c 	ld  [ %g1 + 0x1c ], %g2
41000f18:	82 60 3f ff 	subx  %g0, -1, %g1
41000f1c:	80 a0 00 02 	cmp  %g0, %g2
41000f20:	84 60 3f ff 	subx  %g0, -1, %g2
41000f24:	80 a0 40 02 	cmp  %g1, %g2
41000f28:	12 80 00 26 	bne  41000fc0 <_Thread_Handler_initialization+0xc0>
41000f2c:	90 10 20 00 	clr  %o0
41000f30:	03 10 40 2a 	sethi  %hi(0x4100a800), %g1
41000f34:	c0 20 61 c0 	clr  [ %g1 + 0x1c0 ]	! 4100a9c0 <_Context_Switch_necessary>
41000f38:	03 10 40 19 	sethi  %hi(0x41006400), %g1
41000f3c:	c0 20 63 94 	clr  [ %g1 + 0x394 ]	! 41006794 <_Thread_Executing>
41000f40:	03 10 40 19 	sethi  %hi(0x41006400), %g1
41000f44:	c0 20 63 98 	clr  [ %g1 + 0x398 ]	! 41006798 <_Thread_Heir>
41000f48:	03 10 40 2a 	sethi  %hi(0x4100a800), %g1
41000f4c:	f2 20 61 6c 	st  %i1, [ %g1 + 0x16c ]	! 4100a96c <_Thread_Maximum_extensions>
41000f50:	03 10 40 2a 	sethi  %hi(0x4100a800), %g1
41000f54:	90 10 2c 00 	mov  0xc00, %o0
41000f58:	40 00 04 46 	call  41002070 <_Workspace_Allocate_or_fatal_error>
41000f5c:	f0 20 60 dc 	st  %i0, [ %g1 + 0xdc ]
41000f60:	05 10 40 2a 	sethi  %hi(0x4100a800), %g2
41000f64:	82 10 00 08 	mov  %o0, %g1
41000f68:	d0 20 a0 d8 	st  %o0, [ %g2 + 0xd8 ]
41000f6c:	86 02 2c 00 	add  %o0, 0xc00, %g3
41000f70:	84 00 60 04 	add  %g1, 4, %g2
41000f74:	c0 20 60 04 	clr  [ %g1 + 4 ]
41000f78:	c2 20 60 08 	st  %g1, [ %g1 + 8 ]
41000f7c:	c4 20 40 00 	st  %g2, [ %g1 ]
41000f80:	82 00 60 0c 	add  %g1, 0xc, %g1
41000f84:	80 a0 40 03 	cmp  %g1, %g3
41000f88:	12 bf ff fb 	bne  41000f74 <_Thread_Handler_initialization+0x74>
41000f8c:	84 00 60 04 	add  %g1, 4, %g2
41000f90:	82 10 20 08 	mov  8, %g1
41000f94:	11 10 40 2a 	sethi  %hi(0x4100a800), %o0
41000f98:	c2 23 a0 5c 	st  %g1, [ %sp + 0x5c ]
41000f9c:	90 12 21 74 	or  %o0, 0x174, %o0
41000fa0:	92 10 20 01 	mov  1, %o1
41000fa4:	94 10 20 01 	mov  1, %o2
41000fa8:	96 10 20 01 	mov  1, %o3
41000fac:	98 10 21 98 	mov  0x198, %o4
41000fb0:	7f ff ff a2 	call  41000e38 <_Objects_Initialize_information>
41000fb4:	9a 10 20 01 	mov  1, %o5
41000fb8:	81 c7 e0 08 	ret 
41000fbc:	81 e8 00 00 	restore 
41000fc0:	92 10 20 01 	mov  1, %o1
41000fc4:	7f ff ff 37 	call  41000ca0 <_Internal_error_Occurred>
41000fc8:	94 10 20 0f 	mov  0xf, %o2
41000fcc:	10 bf ff da 	b  41000f34 <_Thread_Handler_initialization+0x34>
41000fd0:	03 10 40 2a 	sethi  %hi(0x4100a800), %g1

41000fd4 <_Thread_Close>:
41000fd4:	9d e3 bf a0 	save  %sp, -96, %sp
41000fd8:	40 00 03 42 	call  41001ce0 <_User_extensions_Thread_delete>
41000fdc:	90 10 00 19 	mov  %i1, %o0
41000fe0:	40 00 00 da 	call  41001348 <_Thread_Free_mutexes>
41000fe4:	90 10 00 19 	mov  %i1, %o0
41000fe8:	c2 06 60 20 	ld  [ %i1 + 0x20 ], %g1
41000fec:	80 a0 60 00 	cmp  %g1, 0
41000ff0:	22 80 00 2f 	be,a   410010ac <_Thread_Close+0xd8>
41000ff4:	c2 06 60 24 	ld  [ %i1 + 0x24 ], %g1
41000ff8:	40 00 06 61 	call  4100297c <_Chain_Extract>
41000ffc:	90 06 60 20 	add  %i1, 0x20, %o0
41001000:	c4 06 60 08 	ld  [ %i1 + 8 ], %g2
41001004:	03 00 00 3f 	sethi  %hi(0xfc00), %g1
41001008:	82 10 63 ff 	or  %g1, 0x3ff, %g1	! ffff <PROM_START+0xffff>
4100100c:	82 08 80 01 	and  %g2, %g1, %g1
41001010:	c4 16 20 10 	lduh  [ %i0 + 0x10 ], %g2
41001014:	80 a0 40 02 	cmp  %g1, %g2
41001018:	18 80 00 2a 	bgu  410010c0 <_Thread_Close+0xec>
4100101c:	83 28 60 02 	sll  %g1, 2, %g1
41001020:	c4 06 20 1c 	ld  [ %i0 + 0x1c ], %g2
41001024:	c0 20 80 01 	clr  [ %g2 + %g1 ]
41001028:	92 10 20 04 	mov  4, %o1
4100102c:	90 10 00 19 	mov  %i1, %o0
41001030:	40 00 01 b2 	call  410016f8 <_Thread_Set_state>
41001034:	c0 26 60 0c 	clr  [ %i1 + 0xc ]
41001038:	40 00 01 88 	call  41001658 <_Thread_queue_Extract_with_proxy>
4100103c:	90 10 00 19 	mov  %i1, %o0
41001040:	80 a2 20 00 	cmp  %o0, 0
41001044:	32 80 00 07 	bne,a   41001060 <_Thread_Close+0x8c>
41001048:	c0 26 61 88 	clr  [ %i1 + 0x188 ]
4100104c:	c2 06 60 78 	ld  [ %i1 + 0x78 ], %g1
41001050:	80 a0 60 02 	cmp  %g1, 2
41001054:	02 80 00 21 	be  410010d8 <_Thread_Close+0x104>
41001058:	01 00 00 00 	nop 
4100105c:	c0 26 61 88 	clr  [ %i1 + 0x188 ]
41001060:	d2 06 60 f4 	ld  [ %i1 + 0xf4 ], %o1
41001064:	80 a2 60 00 	cmp  %o1, 0
41001068:	02 80 00 04 	be  41001078 <_Thread_Close+0xa4>
4100106c:	11 10 40 2a 	sethi  %hi(0x4100a800), %o0
41001070:	40 00 08 07 	call  4100308c <_Heap_Free>
41001074:	90 12 22 04 	or  %o0, 0x204, %o0	! 4100aa04 <_Workspace_Area>
41001078:	40 00 02 1d 	call  410018ec <_Thread_Stack_Free>
4100107c:	90 10 00 19 	mov  %i1, %o0
41001080:	d2 06 61 90 	ld  [ %i1 + 0x190 ], %o1
41001084:	80 a2 60 00 	cmp  %o1, 0
41001088:	22 80 00 06 	be,a   410010a0 <_Thread_Close+0xcc>
4100108c:	c0 26 61 90 	clr  [ %i1 + 0x190 ]
41001090:	11 10 40 2a 	sethi  %hi(0x4100a800), %o0
41001094:	40 00 07 fe 	call  4100308c <_Heap_Free>
41001098:	90 12 22 04 	or  %o0, 0x204, %o0	! 4100aa04 <_Workspace_Area>
4100109c:	c0 26 61 90 	clr  [ %i1 + 0x190 ]
410010a0:	c0 26 60 f8 	clr  [ %i1 + 0xf8 ]
410010a4:	81 c7 e0 08 	ret 
410010a8:	81 e8 00 00 	restore 
410010ac:	80 a0 60 00 	cmp  %g1, 0
410010b0:	12 bf ff d2 	bne  41000ff8 <_Thread_Close+0x24>
410010b4:	01 00 00 00 	nop 
410010b8:	10 bf ff d3 	b  41001004 <_Thread_Close+0x30>
410010bc:	c4 06 60 08 	ld  [ %i1 + 8 ], %g2
410010c0:	90 10 20 00 	clr  %o0
410010c4:	92 10 20 01 	mov  1, %o1
410010c8:	7f ff fe f6 	call  41000ca0 <_Internal_error_Occurred>
410010cc:	94 10 20 20 	mov  0x20, %o2
410010d0:	10 bf ff d7 	b  4100102c <_Thread_Close+0x58>
410010d4:	92 10 20 04 	mov  4, %o1
410010d8:	40 00 03 a6 	call  41001f70 <_Watchdog_Remove>
410010dc:	90 06 60 70 	add  %i1, 0x70, %o0
410010e0:	10 bf ff e0 	b  41001060 <_Thread_Close+0x8c>
410010e4:	c0 26 61 88 	clr  [ %i1 + 0x188 ]

410010e8 <_Thread_Create_idle>:
410010e8:	9d e3 bf 90 	save  %sp, -112, %sp
410010ec:	23 10 40 2a 	sethi  %hi(0x4100a800), %l1
410010f0:	21 10 40 2a 	sethi  %hi(0x4100a800), %l0
410010f4:	40 00 08 73 	call  410032c0 <_Objects_Allocate>
410010f8:	90 14 61 74 	or  %l1, 0x174, %o0
410010fc:	d0 24 21 bc 	st  %o0, [ %l0 + 0x1bc ]
41001100:	03 10 40 29 	sethi  %hi(0x4100a400), %g1
41001104:	82 10 63 c0 	or  %g1, 0x3c0, %g1	! 4100a7c0 <_CPU_Table>
41001108:	f4 00 60 0c 	ld  [ %g1 + 0xc ], %i2
4100110c:	80 a6 a0 00 	cmp  %i2, 0
41001110:	02 80 00 1b 	be  4100117c <_Thread_Create_idle+0x94>
41001114:	92 10 00 08 	mov  %o0, %o1
41001118:	d4 00 60 14 	ld  [ %g1 + 0x14 ], %o2
4100111c:	80 a2 af ff 	cmp  %o2, 0xfff
41001120:	28 80 00 02 	bleu,a   41001128 <_Thread_Create_idle+0x40>
41001124:	15 00 00 04 	sethi  %hi(0x1000), %o2
41001128:	03 10 40 19 	sethi  %hi(0x41006400), %g1
4100112c:	c2 00 62 cc 	ld  [ %g1 + 0x2cc ], %g1	! 410066cc <_Thread_Idle_name>
41001130:	c0 23 a0 5c 	clr  [ %sp + 0x5c ]
41001134:	c2 23 a0 68 	st  %g1, [ %sp + 0x68 ]
41001138:	c0 23 a0 60 	clr  [ %sp + 0x60 ]
4100113c:	c0 23 a0 64 	clr  [ %sp + 0x64 ]
41001140:	90 14 61 74 	or  %l1, 0x174, %o0
41001144:	96 10 20 00 	clr  %o3
41001148:	98 10 20 ff 	mov  0xff, %o4
4100114c:	40 00 00 b1 	call  41001410 <_Thread_Initialize>
41001150:	9a 10 20 01 	mov  1, %o5
41001154:	05 10 40 19 	sethi  %hi(0x41006400), %g2
41001158:	c2 04 21 bc 	ld  [ %l0 + 0x1bc ], %g1
4100115c:	c2 20 a3 94 	st  %g1, [ %g2 + 0x394 ]
41001160:	05 10 40 19 	sethi  %hi(0x41006400), %g2
41001164:	b0 10 00 01 	mov  %g1, %i0
41001168:	c2 20 a3 98 	st  %g1, [ %g2 + 0x398 ]
4100116c:	b2 10 20 00 	clr  %i1
41001170:	b6 10 20 00 	clr  %i3
41001174:	40 00 01 ef 	call  41001930 <_Thread_Start>
41001178:	99 e8 20 00 	restore  %g0, 0, %o4
4100117c:	35 10 40 05 	sethi  %hi(0x41001400), %i2
41001180:	10 bf ff e6 	b  41001118 <_Thread_Create_idle+0x30>
41001184:	b4 16 a0 0c 	or  %i2, 0xc, %i2	! 4100140c <_Thread_Idle_body>

41001188 <_Thread_Delay_ended>:
41001188:	9d e3 bf 98 	save  %sp, -104, %sp
4100118c:	80 a6 20 00 	cmp  %i0, 0
41001190:	12 80 00 11 	bne  410011d4 <_Thread_Delay_ended+0x4c>
41001194:	83 36 20 18 	srl  %i0, 0x18, %g1
41001198:	21 10 40 2a 	sethi  %hi(0x4100a800), %l0
4100119c:	c2 04 21 68 	ld  [ %l0 + 0x168 ], %g1	! 4100a968 <_Thread_Dispatch_disable_level>
410011a0:	82 00 60 01 	inc  %g1
410011a4:	c2 24 21 68 	st  %g1, [ %l0 + 0x168 ]
410011a8:	03 10 40 19 	sethi  %hi(0x41006400), %g1
410011ac:	c0 27 bf fc 	clr  [ %fp + -4 ]
410011b0:	d0 00 63 94 	ld  [ %g1 + 0x394 ], %o0
410011b4:	13 04 00 ff 	sethi  %hi(0x1003fc00), %o1
410011b8:	40 00 09 30 	call  41003678 <_Thread_Clear_state>
410011bc:	92 12 63 f8 	or  %o1, 0x3f8, %o1	! 1003fff8 <RAM_SIZE+0xfc3fff8>
410011c0:	c2 04 21 68 	ld  [ %l0 + 0x168 ], %g1
410011c4:	82 00 7f ff 	add  %g1, -1, %g1
410011c8:	c2 24 21 68 	st  %g1, [ %l0 + 0x168 ]
410011cc:	81 c7 e0 08 	ret 
410011d0:	81 e8 00 00 	restore 
410011d4:	82 08 60 07 	and  %g1, 7, %g1
410011d8:	80 a0 60 04 	cmp  %g1, 4
410011dc:	18 bf ff fc 	bgu  410011cc <_Thread_Delay_ended+0x44>
410011e0:	85 36 20 1b 	srl  %i0, 0x1b, %g2
410011e4:	80 a0 a0 01 	cmp  %g2, 1
410011e8:	12 bf ff f9 	bne  410011cc <_Thread_Delay_ended+0x44>
410011ec:	83 28 60 02 	sll  %g1, 2, %g1
410011f0:	05 10 40 2a 	sethi  %hi(0x4100a800), %g2
410011f4:	84 10 a0 c4 	or  %g2, 0xc4, %g2	! 4100a8c4 <_Objects_Information_table>
410011f8:	c2 00 80 01 	ld  [ %g2 + %g1 ], %g1
410011fc:	d0 00 60 04 	ld  [ %g1 + 4 ], %o0
41001200:	80 a2 20 00 	cmp  %o0, 0
41001204:	02 bf ff f2 	be  410011cc <_Thread_Delay_ended+0x44>
41001208:	92 10 00 18 	mov  %i0, %o1
4100120c:	7f ff fe e6 	call  41000da4 <_Objects_Get>
41001210:	94 07 bf fc 	add  %fp, -4, %o2
41001214:	c2 07 bf fc 	ld  [ %fp + -4 ], %g1
41001218:	80 a0 60 00 	cmp  %g1, 0
4100121c:	02 bf ff e6 	be  410011b4 <_Thread_Delay_ended+0x2c>
41001220:	21 10 40 2a 	sethi  %hi(0x4100a800), %l0
41001224:	80 a0 60 02 	cmp  %g1, 2
41001228:	02 bf ff e9 	be  410011cc <_Thread_Delay_ended+0x44>
4100122c:	90 10 20 00 	clr  %o0
41001230:	92 10 20 01 	mov  1, %o1
41001234:	7f ff fe 9b 	call  41000ca0 <_Internal_error_Occurred>
41001238:	94 10 20 21 	mov  0x21, %o2
4100123c:	81 c7 e0 08 	ret 
41001240:	81 e8 00 00 	restore 

41001244 <_Thread_Dispatch>:
41001244:	9d e3 bf a0 	save  %sp, -96, %sp
41001248:	27 10 40 19 	sethi  %hi(0x41006400), %l3
4100124c:	40 00 13 ec 	call  410061fc <xky_sparc_disable_interrupts>
41001250:	e0 04 e3 94 	ld  [ %l3 + 0x394 ], %l0	! 41006794 <_Thread_Executing>
41001254:	29 10 40 2a 	sethi  %hi(0x4100a800), %l4
41001258:	c2 05 21 c0 	ld  [ %l4 + 0x1c0 ], %g1	! 4100a9c0 <_Context_Switch_necessary>
4100125c:	80 a0 60 01 	cmp  %g1, 1
41001260:	12 80 00 36 	bne  41001338 <_Thread_Dispatch+0xf4>
41001264:	39 10 40 2a 	sethi  %hi(0x4100a800), %i4
41001268:	2f 10 40 19 	sethi  %hi(0x41006400), %l7
4100126c:	25 10 40 2a 	sethi  %hi(0x4100a800), %l2
41001270:	3b 10 40 2a 	sethi  %hi(0x4100a800), %i5
41001274:	a8 15 21 c0 	or  %l4, 0x1c0, %l4
41001278:	a6 14 e3 94 	or  %l3, 0x394, %l3
4100127c:	ae 15 e3 98 	or  %l7, 0x398, %l7
41001280:	a4 14 a1 70 	or  %l2, 0x170, %l2
41001284:	ba 17 60 dc 	or  %i5, 0xdc, %i5
41001288:	ac 17 21 68 	or  %i4, 0x168, %l6
4100128c:	10 80 00 1c 	b  410012fc <_Thread_Dispatch+0xb8>
41001290:	aa 10 20 01 	mov  1, %l5
41001294:	40 00 13 de 	call  4100620c <xky_sparc_enable_interrupts>
41001298:	01 00 00 00 	nop 
4100129c:	90 10 00 10 	mov  %l0, %o0
410012a0:	40 00 02 bc 	call  41001d90 <_User_extensions_Thread_switch>
410012a4:	92 10 00 11 	mov  %l1, %o1
410012a8:	c2 04 21 88 	ld  [ %l0 + 0x188 ], %g1
410012ac:	80 a0 60 00 	cmp  %g1, 0
410012b0:	22 80 00 05 	be,a   410012c4 <_Thread_Dispatch+0x80>
410012b4:	90 04 21 00 	add  %l0, 0x100, %o0
410012b8:	40 00 03 f7 	call  41002294 <_CPU_Context_save_fp>
410012bc:	90 04 21 88 	add  %l0, 0x188, %o0
410012c0:	90 04 21 00 	add  %l0, 0x100, %o0
410012c4:	40 00 04 22 	call  4100234c <_CPU_Context_switch>
410012c8:	92 04 61 00 	add  %l1, 0x100, %o1
410012cc:	c2 04 21 88 	ld  [ %l0 + 0x188 ], %g1
410012d0:	80 a0 60 00 	cmp  %g1, 0
410012d4:	02 80 00 04 	be  410012e4 <_Thread_Dispatch+0xa0>
410012d8:	90 04 21 88 	add  %l0, 0x188, %o0
410012dc:	40 00 04 05 	call  410022f0 <_CPU_Context_restore_fp>
410012e0:	01 00 00 00 	nop 
410012e4:	40 00 13 c6 	call  410061fc <xky_sparc_disable_interrupts>
410012e8:	e0 04 c0 00 	ld  [ %l3 ], %l0
410012ec:	c2 05 00 00 	ld  [ %l4 ], %g1
410012f0:	80 a0 60 01 	cmp  %g1, 1
410012f4:	12 80 00 11 	bne  41001338 <_Thread_Dispatch+0xf4>
410012f8:	01 00 00 00 	nop 
410012fc:	c2 04 80 00 	ld  [ %l2 ], %g1
41001300:	ea 25 80 00 	st  %l5, [ %l6 ]
41001304:	c2 24 20 a4 	st  %g1, [ %l0 + 0xa4 ]
41001308:	e2 05 c0 00 	ld  [ %l7 ], %l1
4100130c:	c0 25 00 00 	clr  [ %l4 ]
41001310:	c2 04 60 a4 	ld  [ %l1 + 0xa4 ], %g1
41001314:	e2 24 c0 00 	st  %l1, [ %l3 ]
41001318:	c2 24 80 00 	st  %g1, [ %l2 ]
4100131c:	c2 04 60 ac 	ld  [ %l1 + 0xac ], %g1
41001320:	80 a0 60 01 	cmp  %g1, 1
41001324:	12 bf ff dc 	bne  41001294 <_Thread_Dispatch+0x50>
41001328:	01 00 00 00 	nop 
4100132c:	c2 07 40 00 	ld  [ %i5 ], %g1
41001330:	10 bf ff d9 	b  41001294 <_Thread_Dispatch+0x50>
41001334:	c2 24 60 a8 	st  %g1, [ %l1 + 0xa8 ]
41001338:	c0 27 21 68 	clr  [ %i4 + 0x168 ]
4100133c:	40 00 13 b4 	call  4100620c <xky_sparc_enable_interrupts>
41001340:	91 e8 00 08 	restore  %g0, %o0, %o0
41001344:	01 00 00 00 	nop 

41001348 <_Thread_Free_mutexes>:
41001348:	9d e3 bf a0 	save  %sp, -96, %sp
4100134c:	c2 06 20 50 	ld  [ %i0 + 0x50 ], %g1
41001350:	a0 06 20 54 	add  %i0, 0x54, %l0
41001354:	80 a0 40 10 	cmp  %g1, %l0
41001358:	02 80 00 0a 	be  41001380 <_Thread_Free_mutexes+0x38>
4100135c:	90 10 00 01 	mov  %g1, %o0
41001360:	c2 00 60 6c 	ld  [ %g1 + 0x6c ], %g1
41001364:	94 10 20 01 	mov  1, %o2
41001368:	40 00 05 8f 	call  410029a4 <_CORE_mutex_Surrender>
4100136c:	d2 00 60 08 	ld  [ %g1 + 8 ], %o1
41001370:	c2 06 20 50 	ld  [ %i0 + 0x50 ], %g1
41001374:	80 a0 40 10 	cmp  %g1, %l0
41001378:	12 bf ff fa 	bne  41001360 <_Thread_Free_mutexes+0x18>
4100137c:	90 10 00 01 	mov  %g1, %o0
41001380:	81 c7 e0 08 	ret 
41001384:	81 e8 00 00 	restore 

41001388 <_Thread_Handler>:
41001388:	9d e3 bf a0 	save  %sp, -96, %sp
4100138c:	03 10 40 19 	sethi  %hi(0x41006400), %g1
41001390:	e0 00 63 94 	ld  [ %g1 + 0x394 ], %l0	! 41006794 <_Thread_Executing>
41001394:	3f 10 40 04 	sethi  %hi(0x41001000), %i7
41001398:	be 17 e3 84 	or  %i7, 0x384, %i7	! 41001384 <_Thread_Free_mutexes+0x3c>
4100139c:	40 00 13 9c 	call  4100620c <xky_sparc_enable_interrupts>
410013a0:	d0 04 20 e0 	ld  [ %l0 + 0xe0 ], %o0
410013a4:	84 10 20 01 	mov  1, %g2
410013a8:	03 10 40 19 	sethi  %hi(0x41006400), %g1
410013ac:	90 10 00 10 	mov  %l0, %o0
410013b0:	40 00 01 f6 	call  41001b88 <_User_extensions_Thread_begin>
410013b4:	c4 28 63 9c 	stb  %g2, [ %g1 + 0x39c ]
410013b8:	03 10 40 2a 	sethi  %hi(0x4100a800), %g1
410013bc:	c4 00 61 68 	ld  [ %g1 + 0x168 ], %g2	! 4100a968 <_Thread_Dispatch_disable_level>
410013c0:	84 00 bf ff 	add  %g2, -1, %g2
410013c4:	c4 20 61 68 	st  %g2, [ %g1 + 0x168 ]
410013c8:	c2 00 61 68 	ld  [ %g1 + 0x168 ], %g1
410013cc:	80 a0 60 00 	cmp  %g1, 0
410013d0:	32 80 00 05 	bne,a   410013e4 <_Thread_Handler+0x5c>
410013d4:	c2 04 20 c4 	ld  [ %l0 + 0xc4 ], %g1
410013d8:	7f ff ff 9b 	call  41001244 <_Thread_Dispatch>
410013dc:	01 00 00 00 	nop 
410013e0:	c2 04 20 c4 	ld  [ %l0 + 0xc4 ], %g1
410013e4:	9f c0 40 00 	call  %g1
410013e8:	d0 04 20 d0 	ld  [ %l0 + 0xd0 ], %o0
410013ec:	d0 24 20 30 	st  %o0, [ %l0 + 0x30 ]
410013f0:	90 10 00 10 	mov  %l0, %o0
410013f4:	40 00 01 f9 	call  41001bd8 <_User_extensions_Thread_exitted>
410013f8:	b0 10 20 00 	clr  %i0
410013fc:	b2 10 20 01 	mov  1, %i1
41001400:	7f ff fe 28 	call  41000ca0 <_Internal_error_Occurred>
41001404:	95 e8 20 06 	restore  %g0, 6, %o2
41001408:	01 00 00 00 	nop 

4100140c <_Thread_Idle_body>:
4100140c:	30 80 00 00 	b,a   4100140c <_Thread_Idle_body>

41001410 <_Thread_Initialize>:
41001410:	9d e3 bf a0 	save  %sp, -96, %sp
41001414:	c0 26 60 a4 	clr  [ %i1 + 0xa4 ]
41001418:	90 10 00 19 	mov  %i1, %o0
4100141c:	40 00 01 19 	call  41001880 <_Thread_Stack_Allocate>
41001420:	92 10 00 1a 	mov  %i2, %o1
41001424:	80 a6 80 08 	cmp  %i2, %o0
41001428:	18 80 00 60 	bgu  410015a8 <_Thread_Initialize+0x198>
4100142c:	80 a2 20 00 	cmp  %o0, 0
41001430:	02 80 00 5e 	be  410015a8 <_Thread_Initialize+0x198>
41001434:	80 a6 e0 00 	cmp  %i3, 0
41001438:	c2 06 60 f8 	ld  [ %i1 + 0xf8 ], %g1
4100143c:	d0 26 60 ec 	st  %o0, [ %i1 + 0xec ]
41001440:	c2 26 60 f0 	st  %g1, [ %i1 + 0xf0 ]
41001444:	82 10 20 01 	mov  1, %g1
41001448:	c2 26 60 e8 	st  %g1, [ %i1 + 0xe8 ]
4100144c:	82 10 20 00 	clr  %g1
41001450:	12 80 00 58 	bne  410015b0 <_Thread_Initialize+0x1a0>
41001454:	b4 10 20 00 	clr  %i2
41001458:	c2 26 60 f4 	st  %g1, [ %i1 + 0xf4 ]
4100145c:	c2 26 61 88 	st  %g1, [ %i1 + 0x188 ]
41001460:	c0 26 60 78 	clr  [ %i1 + 0x78 ]
41001464:	c0 26 60 8c 	clr  [ %i1 + 0x8c ]
41001468:	c0 26 60 90 	clr  [ %i1 + 0x90 ]
4100146c:	c0 26 60 94 	clr  [ %i1 + 0x94 ]
41001470:	23 10 40 2a 	sethi  %hi(0x4100a800), %l1
41001474:	c2 04 61 6c 	ld  [ %l1 + 0x16c ], %g1	! 4100a96c <_Thread_Maximum_extensions>
41001478:	80 a0 60 00 	cmp  %g1, 0
4100147c:	12 80 00 59 	bne  410015e0 <_Thread_Initialize+0x1d0>
41001480:	a0 10 20 00 	clr  %l0
41001484:	c0 26 61 90 	clr  [ %i1 + 0x190 ]
41001488:	c2 07 a0 5c 	ld  [ %fp + 0x5c ], %g1
4100148c:	c2 26 60 d8 	st  %g1, [ %i1 + 0xd8 ]
41001490:	c2 07 a0 60 	ld  [ %fp + 0x60 ], %g1
41001494:	c2 26 60 dc 	st  %g1, [ %i1 + 0xdc ]
41001498:	c2 07 a0 64 	ld  [ %fp + 0x64 ], %g1
4100149c:	c2 26 60 e0 	st  %g1, [ %i1 + 0xe0 ]
410014a0:	82 10 20 01 	mov  1, %g1
410014a4:	c2 26 60 10 	st  %g1, [ %i1 + 0x10 ]
410014a8:	82 06 60 54 	add  %i1, 0x54, %g1
410014ac:	c2 26 60 50 	st  %g1, [ %i1 + 0x50 ]
410014b0:	82 06 60 50 	add  %i1, 0x50, %g1
410014b4:	c2 26 60 58 	st  %g1, [ %i1 + 0x58 ]
410014b8:	82 06 60 60 	add  %i1, 0x60, %g1
410014bc:	c2 26 60 5c 	st  %g1, [ %i1 + 0x5c ]
410014c0:	82 06 60 5c 	add  %i1, 0x5c, %g1
410014c4:	fa 26 60 d4 	st  %i5, [ %i1 + 0xd4 ]
410014c8:	c2 26 60 64 	st  %g1, [ %i1 + 0x64 ]
410014cc:	c0 26 60 4c 	clr  [ %i1 + 0x4c ]
410014d0:	f2 26 60 6c 	st  %i1, [ %i1 + 0x6c ]
410014d4:	c0 26 60 20 	clr  [ %i1 + 0x20 ]
410014d8:	c0 26 60 24 	clr  [ %i1 + 0x24 ]
410014dc:	c0 26 60 54 	clr  [ %i1 + 0x54 ]
410014e0:	c0 26 60 60 	clr  [ %i1 + 0x60 ]
410014e4:	c0 26 60 68 	clr  [ %i1 + 0x68 ]
410014e8:	c0 26 60 1c 	clr  [ %i1 + 0x1c ]
410014ec:	c0 26 60 98 	clr  [ %i1 + 0x98 ]
410014f0:	f8 26 60 18 	st  %i4, [ %i1 + 0x18 ]
410014f4:	f8 26 60 e4 	st  %i4, [ %i1 + 0xe4 ]
410014f8:	92 10 00 1c 	mov  %i4, %o1
410014fc:	40 00 00 65 	call  41001690 <_Thread_Set_priority>
41001500:	90 10 00 19 	mov  %i1, %o0
41001504:	c4 06 60 08 	ld  [ %i1 + 8 ], %g2
41001508:	03 00 00 3f 	sethi  %hi(0xfc00), %g1
4100150c:	82 10 63 ff 	or  %g1, 0x3ff, %g1	! ffff <PROM_START+0xffff>
41001510:	82 08 80 01 	and  %g2, %g1, %g1
41001514:	c4 16 20 10 	lduh  [ %i0 + 0x10 ], %g2
41001518:	80 a0 40 02 	cmp  %g1, %g2
4100151c:	18 80 00 4a 	bgu  41001644 <_Thread_Initialize+0x234>
41001520:	90 10 20 00 	clr  %o0
41001524:	c4 06 20 1c 	ld  [ %i0 + 0x1c ], %g2
41001528:	83 28 60 02 	sll  %g1, 2, %g1
4100152c:	f2 20 80 01 	st  %i1, [ %g2 + %g1 ]
41001530:	c2 07 a0 68 	ld  [ %fp + 0x68 ], %g1
41001534:	90 10 00 19 	mov  %i1, %o0
41001538:	c2 26 60 0c 	st  %g1, [ %i1 + 0xc ]
4100153c:	40 00 01 ce 	call  41001c74 <_User_extensions_Thread_create>
41001540:	b0 10 20 01 	mov  1, %i0
41001544:	80 a2 20 00 	cmp  %o0, 0
41001548:	12 80 00 10 	bne  41001588 <_Thread_Initialize+0x178>
4100154c:	80 a4 20 00 	cmp  %l0, 0
41001550:	02 80 00 05 	be  41001564 <_Thread_Initialize+0x154>
41001554:	92 10 00 10 	mov  %l0, %o1
41001558:	11 10 40 2a 	sethi  %hi(0x4100a800), %o0
4100155c:	40 00 06 cc 	call  4100308c <_Heap_Free>
41001560:	90 12 22 04 	or  %o0, 0x204, %o0	! 4100aa04 <_Workspace_Area>
41001564:	80 a6 a0 00 	cmp  %i2, 0
41001568:	02 80 00 05 	be  4100157c <_Thread_Initialize+0x16c>
4100156c:	11 10 40 2a 	sethi  %hi(0x4100a800), %o0
41001570:	92 10 00 1a 	mov  %i2, %o1
41001574:	40 00 06 c6 	call  4100308c <_Heap_Free>
41001578:	90 12 22 04 	or  %o0, 0x204, %o0
4100157c:	90 10 00 19 	mov  %i1, %o0
41001580:	40 00 00 db 	call  410018ec <_Thread_Stack_Free>
41001584:	b0 10 20 00 	clr  %i0
41001588:	81 c7 e0 08 	ret 
4100158c:	81 e8 00 00 	restore 
41001590:	02 80 00 04 	be  410015a0 <_Thread_Initialize+0x190>
41001594:	90 14 a2 04 	or  %l2, 0x204, %o0
41001598:	40 00 06 bd 	call  4100308c <_Heap_Free>
4100159c:	92 10 00 1a 	mov  %i2, %o1
410015a0:	40 00 00 d3 	call  410018ec <_Thread_Stack_Free>
410015a4:	90 10 00 19 	mov  %i1, %o0
410015a8:	81 c7 e0 08 	ret 
410015ac:	91 e8 20 00 	restore  %g0, 0, %o0
410015b0:	11 10 40 2a 	sethi  %hi(0x4100a800), %o0
410015b4:	92 10 20 88 	mov  0x88, %o1
410015b8:	40 00 06 7c 	call  41002fa8 <_Heap_Allocate>
410015bc:	90 12 22 04 	or  %o0, 0x204, %o0
410015c0:	b4 92 20 00 	orcc  %o0, 0, %i2
410015c4:	12 bf ff a5 	bne  41001458 <_Thread_Initialize+0x48>
410015c8:	82 10 00 1a 	mov  %i2, %g1
410015cc:	90 10 00 19 	mov  %i1, %o0
410015d0:	40 00 00 c7 	call  410018ec <_Thread_Stack_Free>
410015d4:	b0 10 20 00 	clr  %i0
410015d8:	81 c7 e0 08 	ret 
410015dc:	81 e8 00 00 	restore 
410015e0:	82 00 60 01 	inc  %g1
410015e4:	25 10 40 2a 	sethi  %hi(0x4100a800), %l2
410015e8:	93 28 60 02 	sll  %g1, 2, %o1
410015ec:	40 00 06 6f 	call  41002fa8 <_Heap_Allocate>
410015f0:	90 14 a2 04 	or  %l2, 0x204, %o0
410015f4:	a0 92 20 00 	orcc  %o0, 0, %l0
410015f8:	02 bf ff e6 	be  41001590 <_Thread_Initialize+0x180>
410015fc:	80 a6 a0 00 	cmp  %i2, 0
41001600:	e0 26 61 90 	st  %l0, [ %i1 + 0x190 ]
41001604:	c8 04 61 6c 	ld  [ %l1 + 0x16c ], %g4
41001608:	88 81 20 01 	inccc  %g4
4100160c:	02 bf ff 9f 	be  41001488 <_Thread_Initialize+0x78>
41001610:	86 10 00 10 	mov  %l0, %g3
41001614:	84 10 20 00 	clr  %g2
41001618:	10 80 00 03 	b  41001624 <_Thread_Initialize+0x214>
4100161c:	82 10 20 00 	clr  %g1
41001620:	c6 06 61 90 	ld  [ %i1 + 0x190 ], %g3
41001624:	85 28 a0 02 	sll  %g2, 2, %g2
41001628:	c0 20 c0 02 	clr  [ %g3 + %g2 ]
4100162c:	82 00 60 01 	inc  %g1
41001630:	80 a0 40 04 	cmp  %g1, %g4
41001634:	0a bf ff fb 	bcs  41001620 <_Thread_Initialize+0x210>
41001638:	84 10 00 01 	mov  %g1, %g2
4100163c:	10 bf ff 94 	b  4100148c <_Thread_Initialize+0x7c>
41001640:	c2 07 a0 5c 	ld  [ %fp + 0x5c ], %g1
41001644:	92 10 20 01 	mov  1, %o1
41001648:	7f ff fd 96 	call  41000ca0 <_Internal_error_Occurred>
4100164c:	94 10 20 20 	mov  0x20, %o2
41001650:	10 bf ff b9 	b  41001534 <_Thread_Initialize+0x124>
41001654:	c2 07 a0 68 	ld  [ %fp + 0x68 ], %g1

41001658 <_Thread_queue_Extract_with_proxy>:
41001658:	9d e3 bf a0 	save  %sp, -96, %sp
4100165c:	05 00 00 ef 	sethi  %hi(0x3bc00), %g2
41001660:	c6 06 20 10 	ld  [ %i0 + 0x10 ], %g3
41001664:	82 10 00 18 	mov  %i0, %g1
41001668:	84 10 a2 e0 	or  %g2, 0x2e0, %g2
4100166c:	80 88 c0 02 	btst  %g3, %g2
41001670:	02 80 00 06 	be  41001688 <_Thread_queue_Extract_with_proxy+0x30>
41001674:	b0 10 20 00 	clr  %i0
41001678:	92 10 00 01 	mov  %g1, %o1
4100167c:	d0 00 60 4c 	ld  [ %g1 + 0x4c ], %o0
41001680:	40 00 09 0a 	call  41003aa8 <_Thread_queue_Extract>
41001684:	b0 10 20 01 	mov  1, %i0
41001688:	81 c7 e0 08 	ret 
4100168c:	81 e8 00 00 	restore 

41001690 <_Thread_Set_priority>:
41001690:	84 0a 60 0f 	and  %o1, 0xf, %g2
41001694:	03 00 00 20 	sethi  %hi(0x8000), %g1
41001698:	85 38 40 02 	sra  %g1, %g2, %g2
4100169c:	86 38 00 02 	xnor  %g0, %g2, %g3
410016a0:	c4 32 20 be 	sth  %g2, [ %o0 + 0xbe ]
410016a4:	05 10 40 2a 	sethi  %hi(0x4100a800), %g2
410016a8:	d2 22 20 14 	st  %o1, [ %o0 + 0x14 ]
410016ac:	c6 32 20 c2 	sth  %g3, [ %o0 + 0xc2 ]
410016b0:	c6 00 a0 d8 	ld  [ %g2 + 0xd8 ], %g3
410016b4:	84 02 40 09 	add  %o1, %o1, %g2
410016b8:	84 00 80 09 	add  %g2, %o1, %g2
410016bc:	93 2a 60 0c 	sll  %o1, 0xc, %o1
410016c0:	85 28 a0 02 	sll  %g2, 2, %g2
410016c4:	93 32 60 10 	srl  %o1, 0x10, %o1
410016c8:	84 00 c0 02 	add  %g3, %g2, %g2
410016cc:	83 38 40 09 	sra  %g1, %o1, %g1
410016d0:	c4 22 20 b4 	st  %g2, [ %o0 + 0xb4 ]
410016d4:	c2 32 20 bc 	sth  %g1, [ %o0 + 0xbc ]
410016d8:	84 38 00 01 	xnor  %g0, %g1, %g2
410016dc:	92 02 40 09 	add  %o1, %o1, %o1
410016e0:	03 10 40 29 	sethi  %hi(0x4100a400), %g1
410016e4:	c4 32 20 c0 	sth  %g2, [ %o0 + 0xc0 ]
410016e8:	82 10 63 f0 	or  %g1, 0x3f0, %g1
410016ec:	92 02 40 01 	add  %o1, %g1, %o1
410016f0:	81 c3 e0 08 	retl 
410016f4:	d2 22 20 b8 	st  %o1, [ %o0 + 0xb8 ]

410016f8 <_Thread_Set_state>:
410016f8:	9d e3 bf a0 	save  %sp, -96, %sp
410016fc:	40 00 12 c0 	call  410061fc <xky_sparc_disable_interrupts>
41001700:	e0 06 20 b4 	ld  [ %i0 + 0xb4 ], %l0
41001704:	a2 10 00 08 	mov  %o0, %l1
41001708:	c2 06 20 10 	ld  [ %i0 + 0x10 ], %g1
4100170c:	80 a0 60 00 	cmp  %g1, 0
41001710:	32 80 00 1c 	bne,a   41001780 <_Thread_Set_state+0x88>
41001714:	b2 16 40 01 	or  %i1, %g1, %i1
41001718:	f2 26 20 10 	st  %i1, [ %i0 + 0x10 ]
4100171c:	c4 04 00 00 	ld  [ %l0 ], %g2
41001720:	c2 04 20 08 	ld  [ %l0 + 8 ], %g1
41001724:	80 a0 80 01 	cmp  %g2, %g1
41001728:	22 80 00 1d 	be,a   4100179c <_Thread_Set_state+0xa4>
4100172c:	c4 06 20 b8 	ld  [ %i0 + 0xb8 ], %g2
41001730:	c2 06 00 00 	ld  [ %i0 ], %g1
41001734:	c4 06 20 04 	ld  [ %i0 + 4 ], %g2
41001738:	c2 20 80 00 	st  %g1, [ %g2 ]
4100173c:	c4 20 60 04 	st  %g2, [ %g1 + 4 ]
41001740:	40 00 12 b3 	call  4100620c <xky_sparc_enable_interrupts>
41001744:	90 10 00 11 	mov  %l1, %o0
41001748:	40 00 12 ad 	call  410061fc <xky_sparc_disable_interrupts>
4100174c:	01 00 00 00 	nop 
41001750:	03 10 40 19 	sethi  %hi(0x41006400), %g1
41001754:	c4 00 63 98 	ld  [ %g1 + 0x398 ], %g2	! 41006798 <_Thread_Heir>
41001758:	80 a6 00 02 	cmp  %i0, %g2
4100175c:	02 80 00 21 	be  410017e0 <_Thread_Set_state+0xe8>
41001760:	07 10 40 2a 	sethi  %hi(0x4100a800), %g3
41001764:	03 10 40 19 	sethi  %hi(0x41006400), %g1
41001768:	c2 00 63 94 	ld  [ %g1 + 0x394 ], %g1	! 41006794 <_Thread_Executing>
4100176c:	80 a6 00 01 	cmp  %i0, %g1
41001770:	22 80 00 07 	be,a   4100178c <_Thread_Set_state+0x94>
41001774:	84 10 20 01 	mov  1, %g2
41001778:	40 00 12 a5 	call  4100620c <xky_sparc_enable_interrupts>
4100177c:	91 e8 00 11 	restore  %g0, %l1, %o0
41001780:	f2 26 20 10 	st  %i1, [ %i0 + 0x10 ]
41001784:	40 00 12 a2 	call  4100620c <xky_sparc_enable_interrupts>
41001788:	91 e8 00 08 	restore  %g0, %o0, %o0
4100178c:	03 10 40 2a 	sethi  %hi(0x4100a800), %g1
41001790:	c4 20 61 c0 	st  %g2, [ %g1 + 0x1c0 ]	! 4100a9c0 <_Context_Switch_necessary>
41001794:	40 00 12 9e 	call  4100620c <xky_sparc_enable_interrupts>
41001798:	91 e8 00 11 	restore  %g0, %l1, %o0
4100179c:	c2 16 20 c2 	lduh  [ %i0 + 0xc2 ], %g1
410017a0:	c6 10 80 00 	lduh  [ %g2 ], %g3
410017a4:	e0 24 20 08 	st  %l0, [ %l0 + 8 ]
410017a8:	82 08 c0 01 	and  %g3, %g1, %g1
410017ac:	c0 24 20 04 	clr  [ %l0 + 4 ]
410017b0:	c2 30 80 00 	sth  %g1, [ %g2 ]
410017b4:	84 04 20 04 	add  %l0, 4, %g2
410017b8:	83 28 60 10 	sll  %g1, 0x10, %g1
410017bc:	80 a0 60 00 	cmp  %g1, 0
410017c0:	12 bf ff e0 	bne  41001740 <_Thread_Set_state+0x48>
410017c4:	c4 24 00 00 	st  %g2, [ %l0 ]
410017c8:	03 10 40 29 	sethi  %hi(0x4100a400), %g1
410017cc:	c4 16 20 c0 	lduh  [ %i0 + 0xc0 ], %g2
410017d0:	c6 10 63 e8 	lduh  [ %g1 + 0x3e8 ], %g3
410017d4:	84 08 c0 02 	and  %g3, %g2, %g2
410017d8:	c4 30 63 e8 	sth  %g2, [ %g1 + 0x3e8 ]
410017dc:	30 bf ff d9 	b,a   41001740 <_Thread_Set_state+0x48>
410017e0:	05 10 40 29 	sethi  %hi(0x4100a400), %g2
410017e4:	c4 10 a3 e8 	lduh  [ %g2 + 0x3e8 ], %g2	! 4100a7e8 <_Priority_Major_bit_map>
410017e8:	d8 00 e0 d8 	ld  [ %g3 + 0xd8 ], %o4
410017ec:	85 28 a0 10 	sll  %g2, 0x10, %g2
410017f0:	87 30 a0 10 	srl  %g2, 0x10, %g3
410017f4:	80 a0 e0 ff 	cmp  %g3, 0xff
410017f8:	18 80 00 1c 	bgu  41001868 <_Thread_Set_state+0x170>
410017fc:	85 30 a0 18 	srl  %g2, 0x18, %g2
41001800:	09 10 40 18 	sethi  %hi(0x41006000), %g4
41001804:	88 11 23 e0 	or  %g4, 0x3e0, %g4	! 410063e0 <__log2table>
41001808:	c6 09 00 03 	ldub  [ %g4 + %g3 ], %g3
4100180c:	86 00 e0 08 	add  %g3, 8, %g3
41001810:	1b 10 40 29 	sethi  %hi(0x4100a400), %o5
41001814:	9a 13 63 f0 	or  %o5, 0x3f0, %o5	! 4100a7f0 <_Priority_Bit_map>
41001818:	87 28 e0 10 	sll  %g3, 0x10, %g3
4100181c:	85 30 e0 0f 	srl  %g3, 0xf, %g2
41001820:	c4 13 40 02 	lduh  [ %o5 + %g2 ], %g2
41001824:	85 28 a0 10 	sll  %g2, 0x10, %g2
41001828:	9b 30 a0 10 	srl  %g2, 0x10, %o5
4100182c:	80 a3 60 ff 	cmp  %o5, 0xff
41001830:	18 80 00 12 	bgu  41001878 <_Thread_Set_state+0x180>
41001834:	85 30 a0 18 	srl  %g2, 0x18, %g2
41001838:	c4 09 00 0d 	ldub  [ %g4 + %o5 ], %g2
4100183c:	84 00 a0 08 	add  %g2, 8, %g2
41001840:	87 30 e0 0c 	srl  %g3, 0xc, %g3
41001844:	85 28 a0 10 	sll  %g2, 0x10, %g2
41001848:	85 30 a0 10 	srl  %g2, 0x10, %g2
4100184c:	84 00 80 03 	add  %g2, %g3, %g2
41001850:	86 00 80 02 	add  %g2, %g2, %g3
41001854:	84 00 c0 02 	add  %g3, %g2, %g2
41001858:	85 28 a0 02 	sll  %g2, 2, %g2
4100185c:	c4 03 00 02 	ld  [ %o4 + %g2 ], %g2
41001860:	10 bf ff c1 	b  41001764 <_Thread_Set_state+0x6c>
41001864:	c4 20 63 98 	st  %g2, [ %g1 + 0x398 ]
41001868:	09 10 40 18 	sethi  %hi(0x41006000), %g4
4100186c:	88 11 23 e0 	or  %g4, 0x3e0, %g4	! 410063e0 <__log2table>
41001870:	10 bf ff e8 	b  41001810 <_Thread_Set_state+0x118>
41001874:	c6 09 00 02 	ldub  [ %g4 + %g2 ], %g3
41001878:	10 bf ff f2 	b  41001840 <_Thread_Set_state+0x148>
4100187c:	c4 09 00 02 	ldub  [ %g4 + %g2 ], %g2

41001880 <_Thread_Stack_Allocate>:
41001880:	9d e3 bf a0 	save  %sp, -96, %sp
41001884:	80 a6 6f ff 	cmp  %i1, 0xfff
41001888:	28 80 00 02 	bleu,a   41001890 <_Thread_Stack_Allocate+0x10>
4100188c:	33 00 00 04 	sethi  %hi(0x1000), %i1
41001890:	03 10 40 29 	sethi  %hi(0x4100a400), %g1
41001894:	c2 00 63 dc 	ld  [ %g1 + 0x3dc ], %g1	! 4100a7dc <_CPU_Table+0x1c>
41001898:	80 a0 60 00 	cmp  %g1, 0
4100189c:	22 80 00 0a 	be,a   410018c4 <_Thread_Stack_Allocate+0x44>
410018a0:	b2 06 60 10 	add  %i1, 0x10, %i1
410018a4:	9f c0 40 00 	call  %g1
410018a8:	90 10 00 19 	mov  %i1, %o0
410018ac:	d0 26 20 f8 	st  %o0, [ %i0 + 0xf8 ]
410018b0:	80 a0 00 08 	cmp  %g0, %o0
410018b4:	b0 60 20 00 	subx  %g0, 0, %i0
410018b8:	b0 0e 40 18 	and  %i1, %i0, %i0
410018bc:	81 c7 e0 08 	ret 
410018c0:	81 e8 00 00 	restore 
410018c4:	11 10 40 2a 	sethi  %hi(0x4100a800), %o0
410018c8:	92 10 00 19 	mov  %i1, %o1
410018cc:	40 00 05 b7 	call  41002fa8 <_Heap_Allocate>
410018d0:	90 12 22 04 	or  %o0, 0x204, %o0
410018d4:	d0 26 20 f8 	st  %o0, [ %i0 + 0xf8 ]
410018d8:	80 a0 00 08 	cmp  %g0, %o0
410018dc:	b0 60 20 00 	subx  %g0, 0, %i0
410018e0:	b0 0e 40 18 	and  %i1, %i0, %i0
410018e4:	81 c7 e0 08 	ret 
410018e8:	81 e8 00 00 	restore 

410018ec <_Thread_Stack_Free>:
410018ec:	9d e3 bf a0 	save  %sp, -96, %sp
410018f0:	c2 06 20 e8 	ld  [ %i0 + 0xe8 ], %g1
410018f4:	80 a0 60 00 	cmp  %g1, 0
410018f8:	02 80 00 08 	be  41001918 <_Thread_Stack_Free+0x2c>
410018fc:	03 10 40 29 	sethi  %hi(0x4100a400), %g1
41001900:	c2 00 63 e0 	ld  [ %g1 + 0x3e0 ], %g1	! 4100a7e0 <_CPU_Table+0x20>
41001904:	80 a0 60 00 	cmp  %g1, 0
41001908:	22 80 00 06 	be,a   41001920 <_Thread_Stack_Free+0x34>
4100190c:	f2 06 20 f0 	ld  [ %i0 + 0xf0 ], %i1
41001910:	9f c0 40 00 	call  %g1
41001914:	d0 06 20 f0 	ld  [ %i0 + 0xf0 ], %o0
41001918:	81 c7 e0 08 	ret 
4100191c:	81 e8 00 00 	restore 
41001920:	31 10 40 2a 	sethi  %hi(0x4100a800), %i0
41001924:	40 00 05 da 	call  4100308c <_Heap_Free>
41001928:	91 ee 22 04 	restore  %i0, 0x204, %o0
4100192c:	01 00 00 00 	nop 

41001930 <_Thread_Start>:
41001930:	9d e3 bf a0 	save  %sp, -96, %sp
41001934:	c2 06 20 10 	ld  [ %i0 + 0x10 ], %g1
41001938:	a0 10 00 18 	mov  %i0, %l0
4100193c:	80 88 60 01 	btst  1, %g1
41001940:	02 80 00 0d 	be  41001974 <_Thread_Start+0x44>
41001944:	b0 10 20 00 	clr  %i0
41001948:	90 10 00 10 	mov  %l0, %o0
4100194c:	f4 24 20 c4 	st  %i2, [ %l0 + 0xc4 ]
41001950:	f2 24 20 c8 	st  %i1, [ %l0 + 0xc8 ]
41001954:	f6 24 20 cc 	st  %i3, [ %l0 + 0xcc ]
41001958:	40 00 07 81 	call  4100375c <_Thread_Load_environment>
4100195c:	f8 24 20 d0 	st  %i4, [ %l0 + 0xd0 ]
41001960:	40 00 08 e8 	call  41003d00 <_Thread_Ready>
41001964:	90 10 00 10 	mov  %l0, %o0
41001968:	90 10 00 10 	mov  %l0, %o0
4100196c:	40 00 00 f3 	call  41001d38 <_User_extensions_Thread_start>
41001970:	b0 10 20 01 	mov  1, %i0
41001974:	81 c7 e0 08 	ret 
41001978:	81 e8 00 00 	restore 

4100197c <_Thread_Start_multitasking>:
4100197c:	9d e3 bf a0 	save  %sp, -96, %sp
41001980:	03 10 40 19 	sethi  %hi(0x41006400), %g1
41001984:	84 10 20 03 	mov  3, %g2
41001988:	c4 20 63 90 	st  %g2, [ %g1 + 0x390 ]
4100198c:	03 10 40 2a 	sethi  %hi(0x4100a800), %g1
41001990:	21 10 40 19 	sethi  %hi(0x41006400), %l0
41001994:	c0 20 61 c0 	clr  [ %g1 + 0x1c0 ]
41001998:	f2 04 23 98 	ld  [ %l0 + 0x398 ], %i1
4100199c:	03 10 40 19 	sethi  %hi(0x41006400), %g1
410019a0:	f2 20 63 94 	st  %i1, [ %g1 + 0x394 ]	! 41006794 <_Thread_Executing>
410019a4:	c2 06 61 88 	ld  [ %i1 + 0x188 ], %g1
410019a8:	80 a0 60 00 	cmp  %g1, 0
410019ac:	22 80 00 06 	be,a   410019c4 <_Thread_Start_multitasking+0x48>
410019b0:	31 10 40 2a 	sethi  %hi(0x4100a800), %i0
410019b4:	40 00 02 4f 	call  410022f0 <_CPU_Context_restore_fp>
410019b8:	90 06 61 88 	add  %i1, 0x188, %o0
410019bc:	f2 04 23 98 	ld  [ %l0 + 0x398 ], %i1
410019c0:	31 10 40 2a 	sethi  %hi(0x4100a800), %i0
410019c4:	b2 06 61 00 	add  %i1, 0x100, %i1
410019c8:	40 00 02 61 	call  4100234c <_CPU_Context_switch>
410019cc:	91 ee 20 e0 	restore  %i0, 0xe0, %o0
410019d0:	01 00 00 00 	nop 

410019d4 <_Thread_Yield_processor>:
410019d4:	9d e3 bf a0 	save  %sp, -96, %sp
410019d8:	03 10 40 19 	sethi  %hi(0x41006400), %g1
410019dc:	e0 00 63 94 	ld  [ %g1 + 0x394 ], %l0	! 41006794 <_Thread_Executing>
410019e0:	40 00 12 07 	call  410061fc <xky_sparc_disable_interrupts>
410019e4:	e2 04 20 b4 	ld  [ %l0 + 0xb4 ], %l1
410019e8:	b0 10 00 08 	mov  %o0, %i0
410019ec:	c4 04 40 00 	ld  [ %l1 ], %g2
410019f0:	c2 04 60 08 	ld  [ %l1 + 8 ], %g1
410019f4:	80 a0 80 01 	cmp  %g2, %g1
410019f8:	02 80 00 1a 	be  41001a60 <_Thread_Yield_processor+0x8c>
410019fc:	03 10 40 19 	sethi  %hi(0x41006400), %g1
41001a00:	c2 04 00 00 	ld  [ %l0 ], %g1
41001a04:	c4 04 20 04 	ld  [ %l0 + 4 ], %g2
41001a08:	c2 20 80 00 	st  %g1, [ %g2 ]
41001a0c:	c4 20 60 04 	st  %g2, [ %g1 + 4 ]
41001a10:	82 04 60 04 	add  %l1, 4, %g1
41001a14:	c2 24 00 00 	st  %g1, [ %l0 ]
41001a18:	c2 04 60 08 	ld  [ %l1 + 8 ], %g1
41001a1c:	e0 24 60 08 	st  %l0, [ %l1 + 8 ]
41001a20:	c2 24 20 04 	st  %g1, [ %l0 + 4 ]
41001a24:	e0 20 40 00 	st  %l0, [ %g1 ]
41001a28:	40 00 11 f9 	call  4100620c <xky_sparc_enable_interrupts>
41001a2c:	01 00 00 00 	nop 
41001a30:	40 00 11 f3 	call  410061fc <xky_sparc_disable_interrupts>
41001a34:	01 00 00 00 	nop 
41001a38:	03 10 40 19 	sethi  %hi(0x41006400), %g1
41001a3c:	c4 00 63 98 	ld  [ %g1 + 0x398 ], %g2	! 41006798 <_Thread_Heir>
41001a40:	80 a4 00 02 	cmp  %l0, %g2
41001a44:	22 80 00 0d 	be,a   41001a78 <_Thread_Yield_processor+0xa4>
41001a48:	c4 04 40 00 	ld  [ %l1 ], %g2
41001a4c:	84 10 20 01 	mov  1, %g2
41001a50:	03 10 40 2a 	sethi  %hi(0x4100a800), %g1
41001a54:	c4 20 61 c0 	st  %g2, [ %g1 + 0x1c0 ]	! 4100a9c0 <_Context_Switch_necessary>
41001a58:	40 00 11 ed 	call  4100620c <xky_sparc_enable_interrupts>
41001a5c:	81 e8 00 00 	restore 
41001a60:	c2 00 63 98 	ld  [ %g1 + 0x398 ], %g1
41001a64:	80 a4 00 01 	cmp  %l0, %g1
41001a68:	32 bf ff fa 	bne,a   41001a50 <_Thread_Yield_processor+0x7c>
41001a6c:	84 10 20 01 	mov  1, %g2
41001a70:	40 00 11 e7 	call  4100620c <xky_sparc_enable_interrupts>
41001a74:	81 e8 00 00 	restore 
41001a78:	10 bf ff f5 	b  41001a4c <_Thread_Yield_processor+0x78>
41001a7c:	c4 20 63 98 	st  %g2, [ %g1 + 0x398 ]

41001a80 <_User_extensions_Handler_initialization>:
41001a80:	9d e3 bf a0 	save  %sp, -96, %sp
41001a84:	09 10 40 2a 	sethi  %hi(0x4100a800), %g4
41001a88:	07 10 40 2a 	sethi  %hi(0x4100a800), %g3
41001a8c:	84 11 21 d0 	or  %g4, 0x1d0, %g2
41001a90:	82 10 e1 c4 	or  %g3, 0x1c4, %g1
41001a94:	c4 20 a0 08 	st  %g2, [ %g2 + 8 ]
41001a98:	c0 20 a0 04 	clr  [ %g2 + 4 ]
41001a9c:	c2 20 60 08 	st  %g1, [ %g1 + 8 ]
41001aa0:	c0 20 60 04 	clr  [ %g1 + 4 ]
41001aa4:	84 00 a0 04 	add  %g2, 4, %g2
41001aa8:	82 00 60 04 	add  %g1, 4, %g1
41001aac:	c4 21 21 d0 	st  %g2, [ %g4 + 0x1d0 ]
41001ab0:	80 a6 60 00 	cmp  %i1, 0
41001ab4:	02 80 00 14 	be  41001b04 <_User_extensions_Handler_initialization+0x84>
41001ab8:	c2 20 e1 c4 	st  %g1, [ %g3 + 0x1c4 ]
41001abc:	a2 5e 20 34 	smul  %i0, 0x34, %l1
41001ac0:	40 00 01 6c 	call  41002070 <_Workspace_Allocate_or_fatal_error>
41001ac4:	90 10 00 11 	mov  %l1, %o0
41001ac8:	94 10 00 11 	mov  %l1, %o2
41001acc:	a0 10 00 08 	mov  %o0, %l0
41001ad0:	40 00 0d e7 	call  4100526c <memset>
41001ad4:	92 10 20 00 	clr  %o1
41001ad8:	80 a6 20 00 	cmp  %i0, 0
41001adc:	02 80 00 0a 	be  41001b04 <_User_extensions_Handler_initialization+0x84>
41001ae0:	a2 10 20 00 	clr  %l1
41001ae4:	90 10 00 10 	mov  %l0, %o0
41001ae8:	40 00 00 09 	call  41001b0c <_User_extensions_Add_set>
41001aec:	92 10 00 19 	mov  %i1, %o1
41001af0:	a2 04 60 01 	inc  %l1
41001af4:	a0 04 20 34 	add  %l0, 0x34, %l0
41001af8:	80 a6 00 11 	cmp  %i0, %l1
41001afc:	18 bf ff fa 	bgu  41001ae4 <_User_extensions_Handler_initialization+0x64>
41001b00:	b2 06 60 20 	add  %i1, 0x20, %i1
41001b04:	81 c7 e0 08 	ret 
41001b08:	81 e8 00 00 	restore 

41001b0c <_User_extensions_Add_set>:
41001b0c:	9d e3 bf a0 	save  %sp, -96, %sp
41001b10:	c2 06 40 00 	ld  [ %i1 ], %g1
41001b14:	c2 26 20 14 	st  %g1, [ %i0 + 0x14 ]
41001b18:	c2 06 60 04 	ld  [ %i1 + 4 ], %g1
41001b1c:	c2 26 20 18 	st  %g1, [ %i0 + 0x18 ]
41001b20:	c2 06 60 08 	ld  [ %i1 + 8 ], %g1
41001b24:	c2 26 20 1c 	st  %g1, [ %i0 + 0x1c ]
41001b28:	c2 06 60 0c 	ld  [ %i1 + 0xc ], %g1
41001b2c:	c2 26 20 20 	st  %g1, [ %i0 + 0x20 ]
41001b30:	c2 06 60 10 	ld  [ %i1 + 0x10 ], %g1
41001b34:	c2 26 20 24 	st  %g1, [ %i0 + 0x24 ]
41001b38:	c2 06 60 14 	ld  [ %i1 + 0x14 ], %g1
41001b3c:	c2 26 20 28 	st  %g1, [ %i0 + 0x28 ]
41001b40:	c2 06 60 18 	ld  [ %i1 + 0x18 ], %g1
41001b44:	c2 26 20 2c 	st  %g1, [ %i0 + 0x2c ]
41001b48:	c2 06 60 1c 	ld  [ %i1 + 0x1c ], %g1
41001b4c:	11 10 40 2a 	sethi  %hi(0x4100a800), %o0
41001b50:	c2 26 20 30 	st  %g1, [ %i0 + 0x30 ]
41001b54:	90 12 21 d0 	or  %o0, 0x1d0, %o0
41001b58:	7f ff fc 37 	call  41000c34 <_Chain_Append>
41001b5c:	92 10 00 18 	mov  %i0, %o1
41001b60:	c2 06 60 10 	ld  [ %i1 + 0x10 ], %g1
41001b64:	80 a0 60 00 	cmp  %g1, 0
41001b68:	02 80 00 06 	be  41001b80 <_User_extensions_Add_set+0x74>
41001b6c:	b2 06 20 08 	add  %i0, 8, %i1
41001b70:	c2 26 20 10 	st  %g1, [ %i0 + 0x10 ]
41001b74:	31 10 40 2a 	sethi  %hi(0x4100a800), %i0
41001b78:	7f ff fc 2f 	call  41000c34 <_Chain_Append>
41001b7c:	91 ee 21 c4 	restore  %i0, 0x1c4, %o0
41001b80:	81 c7 e0 08 	ret 
41001b84:	81 e8 00 00 	restore 

41001b88 <_User_extensions_Thread_begin>:
41001b88:	9d e3 bf a0 	save  %sp, -96, %sp
41001b8c:	23 10 40 2a 	sethi  %hi(0x4100a800), %l1
41001b90:	e0 04 61 d0 	ld  [ %l1 + 0x1d0 ], %l0	! 4100a9d0 <_User_extensions_List>
41001b94:	a2 14 61 d0 	or  %l1, 0x1d0, %l1
41001b98:	a2 04 60 04 	add  %l1, 4, %l1
41001b9c:	80 a4 00 11 	cmp  %l0, %l1
41001ba0:	02 80 00 0c 	be  41001bd0 <_User_extensions_Thread_begin+0x48>
41001ba4:	01 00 00 00 	nop 
41001ba8:	c2 04 20 28 	ld  [ %l0 + 0x28 ], %g1
41001bac:	80 a0 60 00 	cmp  %g1, 0
41001bb0:	22 80 00 05 	be,a   41001bc4 <_User_extensions_Thread_begin+0x3c>
41001bb4:	e0 04 00 00 	ld  [ %l0 ], %l0
41001bb8:	9f c0 40 00 	call  %g1
41001bbc:	90 10 00 18 	mov  %i0, %o0
41001bc0:	e0 04 00 00 	ld  [ %l0 ], %l0
41001bc4:	80 a4 00 11 	cmp  %l0, %l1
41001bc8:	32 bf ff f9 	bne,a   41001bac <_User_extensions_Thread_begin+0x24>
41001bcc:	c2 04 20 28 	ld  [ %l0 + 0x28 ], %g1
41001bd0:	81 c7 e0 08 	ret 
41001bd4:	81 e8 00 00 	restore 

41001bd8 <_User_extensions_Thread_exitted>:
41001bd8:	9d e3 bf a0 	save  %sp, -96, %sp
41001bdc:	03 10 40 2a 	sethi  %hi(0x4100a800), %g1
41001be0:	82 10 61 d0 	or  %g1, 0x1d0, %g1	! 4100a9d0 <_User_extensions_List>
41001be4:	e0 00 60 08 	ld  [ %g1 + 8 ], %l0
41001be8:	80 a4 00 01 	cmp  %l0, %g1
41001bec:	02 80 00 0c 	be  41001c1c <_User_extensions_Thread_exitted+0x44>
41001bf0:	a2 10 00 01 	mov  %g1, %l1
41001bf4:	c2 04 20 2c 	ld  [ %l0 + 0x2c ], %g1
41001bf8:	80 a0 60 00 	cmp  %g1, 0
41001bfc:	22 80 00 05 	be,a   41001c10 <_User_extensions_Thread_exitted+0x38>
41001c00:	e0 04 20 04 	ld  [ %l0 + 4 ], %l0
41001c04:	9f c0 40 00 	call  %g1
41001c08:	90 10 00 18 	mov  %i0, %o0
41001c0c:	e0 04 20 04 	ld  [ %l0 + 4 ], %l0
41001c10:	80 a4 00 11 	cmp  %l0, %l1
41001c14:	32 bf ff f9 	bne,a   41001bf8 <_User_extensions_Thread_exitted+0x20>
41001c18:	c2 04 20 2c 	ld  [ %l0 + 0x2c ], %g1
41001c1c:	81 c7 e0 08 	ret 
41001c20:	81 e8 00 00 	restore 

41001c24 <_User_extensions_Fatal>:
41001c24:	9d e3 bf a0 	save  %sp, -96, %sp
41001c28:	03 10 40 2a 	sethi  %hi(0x4100a800), %g1
41001c2c:	82 10 61 d0 	or  %g1, 0x1d0, %g1	! 4100a9d0 <_User_extensions_List>
41001c30:	e0 00 60 08 	ld  [ %g1 + 8 ], %l0
41001c34:	80 a4 00 01 	cmp  %l0, %g1
41001c38:	02 80 00 0d 	be  41001c6c <_User_extensions_Fatal+0x48>
41001c3c:	a2 10 00 01 	mov  %g1, %l1
41001c40:	c2 04 20 30 	ld  [ %l0 + 0x30 ], %g1
41001c44:	80 a0 60 00 	cmp  %g1, 0
41001c48:	02 80 00 05 	be  41001c5c <_User_extensions_Fatal+0x38>
41001c4c:	90 10 00 18 	mov  %i0, %o0
41001c50:	92 10 00 19 	mov  %i1, %o1
41001c54:	9f c0 40 00 	call  %g1
41001c58:	94 10 00 1a 	mov  %i2, %o2
41001c5c:	e0 04 20 04 	ld  [ %l0 + 4 ], %l0
41001c60:	80 a4 00 11 	cmp  %l0, %l1
41001c64:	32 bf ff f8 	bne,a   41001c44 <_User_extensions_Fatal+0x20>
41001c68:	c2 04 20 30 	ld  [ %l0 + 0x30 ], %g1
41001c6c:	81 c7 e0 08 	ret 
41001c70:	81 e8 00 00 	restore 

41001c74 <_User_extensions_Thread_create>:
41001c74:	9d e3 bf a0 	save  %sp, -96, %sp
41001c78:	23 10 40 2a 	sethi  %hi(0x4100a800), %l1
41001c7c:	e0 04 61 d0 	ld  [ %l1 + 0x1d0 ], %l0	! 4100a9d0 <_User_extensions_List>
41001c80:	a2 14 61 d0 	or  %l1, 0x1d0, %l1
41001c84:	a2 04 60 04 	add  %l1, 4, %l1
41001c88:	80 a4 00 11 	cmp  %l0, %l1
41001c8c:	02 80 00 11 	be  41001cd0 <_User_extensions_Thread_create+0x5c>
41001c90:	25 10 40 19 	sethi  %hi(0x41006400), %l2
41001c94:	a4 14 a3 94 	or  %l2, 0x394, %l2	! 41006794 <_Thread_Executing>
41001c98:	c2 04 20 14 	ld  [ %l0 + 0x14 ], %g1
41001c9c:	80 a0 60 00 	cmp  %g1, 0
41001ca0:	22 80 00 09 	be,a   41001cc4 <_User_extensions_Thread_create+0x50>
41001ca4:	e0 04 00 00 	ld  [ %l0 ], %l0
41001ca8:	d0 04 80 00 	ld  [ %l2 ], %o0
41001cac:	9f c0 40 00 	call  %g1
41001cb0:	92 10 00 18 	mov  %i0, %o1
41001cb4:	80 a2 20 00 	cmp  %o0, 0
41001cb8:	02 80 00 08 	be  41001cd8 <_User_extensions_Thread_create+0x64>
41001cbc:	01 00 00 00 	nop 
41001cc0:	e0 04 00 00 	ld  [ %l0 ], %l0
41001cc4:	80 a4 00 11 	cmp  %l0, %l1
41001cc8:	32 bf ff f5 	bne,a   41001c9c <_User_extensions_Thread_create+0x28>
41001ccc:	c2 04 20 14 	ld  [ %l0 + 0x14 ], %g1
41001cd0:	81 c7 e0 08 	ret 
41001cd4:	91 e8 20 01 	restore  %g0, 1, %o0
41001cd8:	81 c7 e0 08 	ret 
41001cdc:	91 e8 20 00 	restore  %g0, 0, %o0

41001ce0 <_User_extensions_Thread_delete>:
41001ce0:	9d e3 bf a0 	save  %sp, -96, %sp
41001ce4:	03 10 40 2a 	sethi  %hi(0x4100a800), %g1
41001ce8:	82 10 61 d0 	or  %g1, 0x1d0, %g1	! 4100a9d0 <_User_extensions_List>
41001cec:	e0 00 60 08 	ld  [ %g1 + 8 ], %l0
41001cf0:	80 a4 00 01 	cmp  %l0, %g1
41001cf4:	02 80 00 0f 	be  41001d30 <_User_extensions_Thread_delete+0x50>
41001cf8:	a2 10 00 01 	mov  %g1, %l1
41001cfc:	25 10 40 19 	sethi  %hi(0x41006400), %l2
41001d00:	a4 14 a3 94 	or  %l2, 0x394, %l2	! 41006794 <_Thread_Executing>
41001d04:	c2 04 20 20 	ld  [ %l0 + 0x20 ], %g1
41001d08:	80 a0 60 00 	cmp  %g1, 0
41001d0c:	22 80 00 06 	be,a   41001d24 <_User_extensions_Thread_delete+0x44>
41001d10:	e0 04 20 04 	ld  [ %l0 + 4 ], %l0
41001d14:	d0 04 80 00 	ld  [ %l2 ], %o0
41001d18:	9f c0 40 00 	call  %g1
41001d1c:	92 10 00 18 	mov  %i0, %o1
41001d20:	e0 04 20 04 	ld  [ %l0 + 4 ], %l0
41001d24:	80 a4 00 11 	cmp  %l0, %l1
41001d28:	32 bf ff f8 	bne,a   41001d08 <_User_extensions_Thread_delete+0x28>
41001d2c:	c2 04 20 20 	ld  [ %l0 + 0x20 ], %g1
41001d30:	81 c7 e0 08 	ret 
41001d34:	81 e8 00 00 	restore 

41001d38 <_User_extensions_Thread_start>:
41001d38:	9d e3 bf a0 	save  %sp, -96, %sp
41001d3c:	23 10 40 2a 	sethi  %hi(0x4100a800), %l1
41001d40:	e0 04 61 d0 	ld  [ %l1 + 0x1d0 ], %l0	! 4100a9d0 <_User_extensions_List>
41001d44:	a2 14 61 d0 	or  %l1, 0x1d0, %l1
41001d48:	a2 04 60 04 	add  %l1, 4, %l1
41001d4c:	80 a4 00 11 	cmp  %l0, %l1
41001d50:	02 80 00 0e 	be  41001d88 <_User_extensions_Thread_start+0x50>
41001d54:	25 10 40 19 	sethi  %hi(0x41006400), %l2
41001d58:	a4 14 a3 94 	or  %l2, 0x394, %l2	! 41006794 <_Thread_Executing>
41001d5c:	c2 04 20 18 	ld  [ %l0 + 0x18 ], %g1
41001d60:	80 a0 60 00 	cmp  %g1, 0
41001d64:	22 80 00 06 	be,a   41001d7c <_User_extensions_Thread_start+0x44>
41001d68:	e0 04 00 00 	ld  [ %l0 ], %l0
41001d6c:	d0 04 80 00 	ld  [ %l2 ], %o0
41001d70:	9f c0 40 00 	call  %g1
41001d74:	92 10 00 18 	mov  %i0, %o1
41001d78:	e0 04 00 00 	ld  [ %l0 ], %l0
41001d7c:	80 a4 00 11 	cmp  %l0, %l1
41001d80:	32 bf ff f8 	bne,a   41001d60 <_User_extensions_Thread_start+0x28>
41001d84:	c2 04 20 18 	ld  [ %l0 + 0x18 ], %g1
41001d88:	81 c7 e0 08 	ret 
41001d8c:	81 e8 00 00 	restore 

41001d90 <_User_extensions_Thread_switch>:
41001d90:	9d e3 bf a0 	save  %sp, -96, %sp
41001d94:	23 10 40 2a 	sethi  %hi(0x4100a800), %l1
41001d98:	e0 04 61 c4 	ld  [ %l1 + 0x1c4 ], %l0	! 4100a9c4 <_User_extensions_Switches_list>
41001d9c:	a2 14 61 c4 	or  %l1, 0x1c4, %l1
41001da0:	a2 04 60 04 	add  %l1, 4, %l1
41001da4:	80 a4 00 11 	cmp  %l0, %l1
41001da8:	02 80 00 0a 	be  41001dd0 <_User_extensions_Thread_switch+0x40>
41001dac:	01 00 00 00 	nop 
41001db0:	c2 04 20 08 	ld  [ %l0 + 8 ], %g1
41001db4:	90 10 00 18 	mov  %i0, %o0
41001db8:	9f c0 40 00 	call  %g1
41001dbc:	92 10 00 19 	mov  %i1, %o1
41001dc0:	e0 04 00 00 	ld  [ %l0 ], %l0
41001dc4:	80 a4 00 11 	cmp  %l0, %l1
41001dc8:	32 bf ff fb 	bne,a   41001db4 <_User_extensions_Thread_switch+0x24>
41001dcc:	c2 04 20 08 	ld  [ %l0 + 8 ], %g1
41001dd0:	81 c7 e0 08 	ret 
41001dd4:	81 e8 00 00 	restore 

41001dd8 <_Watchdog_Handler_initialization>:
41001dd8:	9d e3 bf a0 	save  %sp, -96, %sp
41001ddc:	03 10 40 2a 	sethi  %hi(0x4100a800), %g1
41001de0:	c0 20 61 f8 	clr  [ %g1 + 0x1f8 ]	! 4100a9f8 <_Watchdog_Sync_count>
41001de4:	03 10 40 2a 	sethi  %hi(0x4100a800), %g1
41001de8:	c0 20 61 dc 	clr  [ %g1 + 0x1dc ]	! 4100a9dc <_Watchdog_Sync_level>
41001dec:	09 10 40 2a 	sethi  %hi(0x4100a800), %g4
41001df0:	07 10 40 2a 	sethi  %hi(0x4100a800), %g3
41001df4:	84 11 21 ec 	or  %g4, 0x1ec, %g2
41001df8:	82 10 e1 e0 	or  %g3, 0x1e0, %g1
41001dfc:	c4 20 a0 08 	st  %g2, [ %g2 + 8 ]
41001e00:	c0 20 a0 04 	clr  [ %g2 + 4 ]
41001e04:	c2 20 60 08 	st  %g1, [ %g1 + 8 ]
41001e08:	c0 20 60 04 	clr  [ %g1 + 4 ]
41001e0c:	1b 10 40 2a 	sethi  %hi(0x4100a800), %o5
41001e10:	84 00 a0 04 	add  %g2, 4, %g2
41001e14:	82 00 60 04 	add  %g1, 4, %g1
41001e18:	c0 23 61 fc 	clr  [ %o5 + 0x1fc ]
41001e1c:	c4 21 21 ec 	st  %g2, [ %g4 + 0x1ec ]
41001e20:	c2 20 e1 e0 	st  %g1, [ %g3 + 0x1e0 ]
41001e24:	81 c7 e0 08 	ret 
41001e28:	81 e8 00 00 	restore 

41001e2c <_Watchdog_Insert>:
41001e2c:	9d e3 bf a0 	save  %sp, -96, %sp
41001e30:	40 00 10 f3 	call  410061fc <xky_sparc_disable_interrupts>
41001e34:	a0 10 00 18 	mov  %i0, %l0
41001e38:	b0 10 00 08 	mov  %o0, %i0
41001e3c:	03 10 40 2a 	sethi  %hi(0x4100a800), %g1
41001e40:	e8 00 60 c0 	ld  [ %g1 + 0xc0 ], %l4	! 4100a8c0 <_ISR_Nest_level>
41001e44:	c2 06 60 08 	ld  [ %i1 + 8 ], %g1
41001e48:	80 a0 60 00 	cmp  %g1, 0
41001e4c:	12 80 00 33 	bne  41001f18 <_Watchdog_Insert+0xec>
41001e50:	82 10 20 01 	mov  1, %g1
41001e54:	2d 10 40 2a 	sethi  %hi(0x4100a800), %l6
41001e58:	c2 26 60 08 	st  %g1, [ %i1 + 8 ]
41001e5c:	2f 10 40 2a 	sethi  %hi(0x4100a800), %l7
41001e60:	c2 05 a1 f8 	ld  [ %l6 + 0x1f8 ], %g1
41001e64:	aa 15 e1 dc 	or  %l7, 0x1dc, %l5
41001e68:	82 00 60 01 	inc  %g1
41001e6c:	ba 10 00 15 	mov  %l5, %i5
41001e70:	c2 25 a1 f8 	st  %g1, [ %l6 + 0x1f8 ]
41001e74:	e4 04 00 00 	ld  [ %l0 ], %l2
41001e78:	e2 06 60 0c 	ld  [ %i1 + 0xc ], %l1
41001e7c:	80 a4 60 00 	cmp  %l1, 0
41001e80:	22 80 00 2a 	be,a   41001f28 <_Watchdog_Insert+0xfc>
41001e84:	c2 04 a0 04 	ld  [ %l2 + 4 ], %g1
41001e88:	c2 04 80 00 	ld  [ %l2 ], %g1
41001e8c:	80 a0 60 00 	cmp  %g1, 0
41001e90:	22 80 00 26 	be,a   41001f28 <_Watchdog_Insert+0xfc>
41001e94:	c2 04 a0 04 	ld  [ %l2 + 4 ], %g1
41001e98:	e6 04 a0 10 	ld  [ %l2 + 0x10 ], %l3
41001e9c:	80 a4 40 13 	cmp  %l1, %l3
41001ea0:	1a 80 00 12 	bcc  41001ee8 <_Watchdog_Insert+0xbc>
41001ea4:	01 00 00 00 	nop 
41001ea8:	10 80 00 1e 	b  41001f20 <_Watchdog_Insert+0xf4>
41001eac:	a6 24 c0 11 	sub  %l3, %l1, %l3
41001eb0:	c2 05 40 00 	ld  [ %l5 ], %g1
41001eb4:	80 a5 00 01 	cmp  %l4, %g1
41001eb8:	0a 80 00 2c 	bcs  41001f68 <_Watchdog_Insert+0x13c>
41001ebc:	a2 a4 40 13 	subcc  %l1, %l3, %l1
41001ec0:	02 80 00 19 	be  41001f24 <_Watchdog_Insert+0xf8>
41001ec4:	e4 04 80 00 	ld  [ %l2 ], %l2
41001ec8:	c2 04 80 00 	ld  [ %l2 ], %g1
41001ecc:	80 a0 60 00 	cmp  %g1, 0
41001ed0:	22 80 00 16 	be,a   41001f28 <_Watchdog_Insert+0xfc>
41001ed4:	c2 04 a0 04 	ld  [ %l2 + 4 ], %g1
41001ed8:	e6 04 a0 10 	ld  [ %l2 + 0x10 ], %l3
41001edc:	80 a4 c0 11 	cmp  %l3, %l1
41001ee0:	38 80 00 10 	bgu,a   41001f20 <_Watchdog_Insert+0xf4>
41001ee4:	a6 24 c0 11 	sub  %l3, %l1, %l3
41001ee8:	40 00 10 c9 	call  4100620c <xky_sparc_enable_interrupts>
41001eec:	90 10 00 18 	mov  %i0, %o0
41001ef0:	40 00 10 c3 	call  410061fc <xky_sparc_disable_interrupts>
41001ef4:	01 00 00 00 	nop 
41001ef8:	c2 06 60 08 	ld  [ %i1 + 8 ], %g1
41001efc:	80 a0 60 01 	cmp  %g1, 1
41001f00:	02 bf ff ec 	be  41001eb0 <_Watchdog_Insert+0x84>
41001f04:	01 00 00 00 	nop 
41001f08:	e8 25 e1 dc 	st  %l4, [ %l7 + 0x1dc ]
41001f0c:	c2 05 a1 f8 	ld  [ %l6 + 0x1f8 ], %g1
41001f10:	82 00 7f ff 	add  %g1, -1, %g1
41001f14:	c2 25 a1 f8 	st  %g1, [ %l6 + 0x1f8 ]
41001f18:	40 00 10 bd 	call  4100620c <xky_sparc_enable_interrupts>
41001f1c:	81 e8 00 00 	restore 
41001f20:	e6 24 a0 10 	st  %l3, [ %l2 + 0x10 ]
41001f24:	c2 04 a0 04 	ld  [ %l2 + 4 ], %g1
41001f28:	c4 00 40 00 	ld  [ %g1 ], %g2
41001f2c:	c2 26 60 04 	st  %g1, [ %i1 + 4 ]
41001f30:	f2 20 40 00 	st  %i1, [ %g1 ]
41001f34:	82 10 20 02 	mov  2, %g1
41001f38:	e2 26 60 10 	st  %l1, [ %i1 + 0x10 ]
41001f3c:	c2 26 60 08 	st  %g1, [ %i1 + 8 ]
41001f40:	03 10 40 2a 	sethi  %hi(0x4100a800), %g1
41001f44:	c2 00 61 fc 	ld  [ %g1 + 0x1fc ], %g1	! 4100a9fc <_Watchdog_Ticks_since_boot>
41001f48:	c2 26 60 14 	st  %g1, [ %i1 + 0x14 ]
41001f4c:	e8 25 e1 dc 	st  %l4, [ %l7 + 0x1dc ]
41001f50:	f2 20 a0 04 	st  %i1, [ %g2 + 4 ]
41001f54:	c2 05 a1 f8 	ld  [ %l6 + 0x1f8 ], %g1
41001f58:	c4 26 40 00 	st  %g2, [ %i1 ]
41001f5c:	82 00 7f ff 	add  %g1, -1, %g1
41001f60:	c2 25 a1 f8 	st  %g1, [ %l6 + 0x1f8 ]
41001f64:	30 bf ff ed 	b,a   41001f18 <_Watchdog_Insert+0xec>
41001f68:	e8 27 40 00 	st  %l4, [ %i5 ]
41001f6c:	30 bf ff c2 	b,a   41001e74 <_Watchdog_Insert+0x48>

41001f70 <_Watchdog_Remove>:
41001f70:	9d e3 bf a0 	save  %sp, -96, %sp
41001f74:	40 00 10 a2 	call  410061fc <xky_sparc_disable_interrupts>
41001f78:	a0 10 00 18 	mov  %i0, %l0
41001f7c:	a2 10 00 08 	mov  %o0, %l1
41001f80:	f0 06 20 08 	ld  [ %i0 + 8 ], %i0
41001f84:	80 a6 20 01 	cmp  %i0, 1
41001f88:	22 80 00 33 	be,a   41002054 <_Watchdog_Remove+0xe4>
41001f8c:	c0 24 20 08 	clr  [ %l0 + 8 ]
41001f90:	1a 80 00 09 	bcc  41001fb4 <_Watchdog_Remove+0x44>
41001f94:	80 a6 20 03 	cmp  %i0, 3
41001f98:	03 10 40 2a 	sethi  %hi(0x4100a800), %g1
41001f9c:	c2 00 61 fc 	ld  [ %g1 + 0x1fc ], %g1	! 4100a9fc <_Watchdog_Ticks_since_boot>
41001fa0:	c2 24 20 18 	st  %g1, [ %l0 + 0x18 ]
41001fa4:	40 00 10 9a 	call  4100620c <xky_sparc_enable_interrupts>
41001fa8:	90 10 00 11 	mov  %l1, %o0
41001fac:	81 c7 e0 08 	ret 
41001fb0:	81 e8 00 00 	restore 
41001fb4:	18 80 00 1e 	bgu  4100202c <_Watchdog_Remove+0xbc>
41001fb8:	90 10 20 00 	clr  %o0
41001fbc:	c0 24 20 08 	clr  [ %l0 + 8 ]
41001fc0:	c2 04 00 00 	ld  [ %l0 ], %g1
41001fc4:	c4 00 40 00 	ld  [ %g1 ], %g2
41001fc8:	80 a0 a0 00 	cmp  %g2, 0
41001fcc:	02 80 00 07 	be  41001fe8 <_Watchdog_Remove+0x78>
41001fd0:	05 10 40 2a 	sethi  %hi(0x4100a800), %g2
41001fd4:	c6 00 60 10 	ld  [ %g1 + 0x10 ], %g3
41001fd8:	c4 04 20 10 	ld  [ %l0 + 0x10 ], %g2
41001fdc:	84 00 c0 02 	add  %g3, %g2, %g2
41001fe0:	c4 20 60 10 	st  %g2, [ %g1 + 0x10 ]
41001fe4:	05 10 40 2a 	sethi  %hi(0x4100a800), %g2
41001fe8:	c4 00 a1 f8 	ld  [ %g2 + 0x1f8 ], %g2	! 4100a9f8 <_Watchdog_Sync_count>
41001fec:	80 a0 a0 00 	cmp  %g2, 0
41001ff0:	02 80 00 05 	be  41002004 <_Watchdog_Remove+0x94>
41001ff4:	05 10 40 2a 	sethi  %hi(0x4100a800), %g2
41001ff8:	c6 00 a0 c0 	ld  [ %g2 + 0xc0 ], %g3	! 4100a8c0 <_ISR_Nest_level>
41001ffc:	05 10 40 2a 	sethi  %hi(0x4100a800), %g2
41002000:	c6 20 a1 dc 	st  %g3, [ %g2 + 0x1dc ]	! 4100a9dc <_Watchdog_Sync_level>
41002004:	c4 04 20 04 	ld  [ %l0 + 4 ], %g2
41002008:	c2 20 80 00 	st  %g1, [ %g2 ]
4100200c:	c4 20 60 04 	st  %g2, [ %g1 + 4 ]
41002010:	03 10 40 2a 	sethi  %hi(0x4100a800), %g1
41002014:	c2 00 61 fc 	ld  [ %g1 + 0x1fc ], %g1	! 4100a9fc <_Watchdog_Ticks_since_boot>
41002018:	c2 24 20 18 	st  %g1, [ %l0 + 0x18 ]
4100201c:	40 00 10 7c 	call  4100620c <xky_sparc_enable_interrupts>
41002020:	90 10 00 11 	mov  %l1, %o0
41002024:	81 c7 e0 08 	ret 
41002028:	81 e8 00 00 	restore 
4100202c:	92 10 20 01 	mov  1, %o1
41002030:	7f ff fb 1c 	call  41000ca0 <_Internal_error_Occurred>
41002034:	94 10 20 28 	mov  0x28, %o2
41002038:	03 10 40 2a 	sethi  %hi(0x4100a800), %g1
4100203c:	c2 00 61 fc 	ld  [ %g1 + 0x1fc ], %g1	! 4100a9fc <_Watchdog_Ticks_since_boot>
41002040:	c2 24 20 18 	st  %g1, [ %l0 + 0x18 ]
41002044:	40 00 10 72 	call  4100620c <xky_sparc_enable_interrupts>
41002048:	90 10 00 11 	mov  %l1, %o0
4100204c:	81 c7 e0 08 	ret 
41002050:	81 e8 00 00 	restore 
41002054:	03 10 40 2a 	sethi  %hi(0x4100a800), %g1
41002058:	c2 00 61 fc 	ld  [ %g1 + 0x1fc ], %g1	! 4100a9fc <_Watchdog_Ticks_since_boot>
4100205c:	c2 24 20 18 	st  %g1, [ %l0 + 0x18 ]
41002060:	40 00 10 6b 	call  4100620c <xky_sparc_enable_interrupts>
41002064:	90 10 00 11 	mov  %l1, %o0
41002068:	81 c7 e0 08 	ret 
4100206c:	81 e8 00 00 	restore 

41002070 <_Workspace_Allocate_or_fatal_error>:
41002070:	9d e3 bf a0 	save  %sp, -96, %sp
41002074:	11 10 40 2a 	sethi  %hi(0x4100a800), %o0
41002078:	92 10 00 18 	mov  %i0, %o1
4100207c:	40 00 03 cb 	call  41002fa8 <_Heap_Allocate>
41002080:	90 12 22 04 	or  %o0, 0x204, %o0
41002084:	b0 92 20 00 	orcc  %o0, 0, %i0
41002088:	12 80 00 04 	bne  41002098 <_Workspace_Allocate_or_fatal_error+0x28>
4100208c:	92 10 20 01 	mov  1, %o1
41002090:	7f ff fb 04 	call  41000ca0 <_Internal_error_Occurred>
41002094:	94 10 20 04 	mov  4, %o2
41002098:	81 c7 e0 08 	ret 
4100209c:	81 e8 00 00 	restore 

410020a0 <_Workspace_Handler_initialization>:
410020a0:	9d e3 bf a0 	save  %sp, -96, %sp
410020a4:	80 a6 20 00 	cmp  %i0, 0
410020a8:	02 80 00 1d 	be  4100211c <_Workspace_Handler_initialization+0x7c>
410020ac:	80 8e 20 07 	btst  7, %i0
410020b0:	12 80 00 1c 	bne  41002120 <_Workspace_Handler_initialization+0x80>
410020b4:	90 10 20 00 	clr  %o0
410020b8:	03 10 40 29 	sethi  %hi(0x4100a400), %g1
410020bc:	c2 00 63 d0 	ld  [ %g1 + 0x3d0 ], %g1	! 4100a7d0 <_CPU_Table+0x10>
410020c0:	80 a0 60 00 	cmp  %g1, 0
410020c4:	02 80 00 0c 	be  410020f4 <_Workspace_Handler_initialization+0x54>
410020c8:	92 10 00 18 	mov  %i0, %o1
410020cc:	87 36 60 02 	srl  %i1, 2, %g3
410020d0:	80 a0 e0 00 	cmp  %g3, 0
410020d4:	02 80 00 08 	be  410020f4 <_Workspace_Handler_initialization+0x54>
410020d8:	82 10 20 00 	clr  %g1
410020dc:	85 28 60 02 	sll  %g1, 2, %g2
410020e0:	82 00 60 01 	inc  %g1
410020e4:	80 a0 40 03 	cmp  %g1, %g3
410020e8:	0a bf ff fd 	bcs  410020dc <_Workspace_Handler_initialization+0x3c>
410020ec:	c0 26 00 02 	clr  [ %i0 + %g2 ]
410020f0:	92 10 00 18 	mov  %i0, %o1
410020f4:	94 10 00 19 	mov  %i1, %o2
410020f8:	11 10 40 2a 	sethi  %hi(0x4100a800), %o0
410020fc:	96 10 20 08 	mov  8, %o3
41002100:	40 00 03 3e 	call  41002df8 <_Heap_Initialize>
41002104:	90 12 22 04 	or  %o0, 0x204, %o0
41002108:	80 a2 20 00 	cmp  %o0, 0
4100210c:	02 80 00 0a 	be  41002134 <_Workspace_Handler_initialization+0x94>
41002110:	b0 10 20 00 	clr  %i0
41002114:	81 c7 e0 08 	ret 
41002118:	81 e8 00 00 	restore 
4100211c:	90 10 20 00 	clr  %o0
41002120:	92 10 20 01 	mov  1, %o1
41002124:	7f ff fa df 	call  41000ca0 <_Internal_error_Occurred>
41002128:	94 10 20 02 	mov  2, %o2
4100212c:	10 bf ff e4 	b  410020bc <_Workspace_Handler_initialization+0x1c>
41002130:	03 10 40 29 	sethi  %hi(0x4100a400), %g1
41002134:	b2 10 20 01 	mov  1, %i1
41002138:	7f ff fa da 	call  41000ca0 <_Internal_error_Occurred>
4100213c:	95 e8 20 03 	restore  %g0, 3, %o2
41002140:	01 00 00 00 	nop 

41002144 <_CPU_Context_Initialize>:
41002144:	9d e3 bf a0 	save  %sp, -96, %sp
41002148:	b4 06 40 1a 	add  %i1, %i2, %i2
4100214c:	b8 07 3f f8 	add  %i4, -8, %i4
41002150:	b4 0e bf f0 	and  %i2, -16, %i2
41002154:	f8 26 20 7c 	st  %i4, [ %i0 + 0x7c ]
41002158:	b4 06 bf a0 	add  %i2, -96, %i2
4100215c:	c0 26 20 58 	clr  [ %i0 + 0x58 ]
41002160:	40 00 10 47 	call  4100627c <xky_sparc_get_psr>
41002164:	f4 26 20 78 	st  %i2, [ %i0 + 0x78 ]
41002168:	b7 2e e0 08 	sll  %i3, 8, %i3
4100216c:	90 0a 30 ff 	and  %o0, -3841, %o0
41002170:	b6 0e ef 00 	and  %i3, 0xf00, %i3
41002174:	03 00 00 04 	sethi  %hi(0x1000), %g1
41002178:	b6 12 00 1b 	or  %o0, %i3, %i3
4100217c:	80 a7 60 00 	cmp  %i5, 0
41002180:	02 80 00 03 	be  4100218c <_CPU_Context_Initialize+0x48>
41002184:	b6 2e c0 01 	andn  %i3, %g1, %i3
41002188:	b6 16 c0 01 	or  %i3, %g1, %i3
4100218c:	f6 26 20 80 	st  %i3, [ %i0 + 0x80 ]
41002190:	c0 26 20 84 	clr  [ %i0 + 0x84 ]
41002194:	81 c7 e0 08 	ret 
41002198:	81 e8 00 00 	restore 

4100219c <_CPU_ISR_Get_level>:
4100219c:	9d e3 bf a0 	save  %sp, -96, %sp
410021a0:	40 00 10 37 	call  4100627c <xky_sparc_get_psr>
410021a4:	01 00 00 00 	nop 
410021a8:	90 0a 2f 00 	and  %o0, 0xf00, %o0
410021ac:	b1 32 20 08 	srl  %o0, 8, %i0
410021b0:	81 c7 e0 08 	ret 
410021b4:	81 e8 00 00 	restore 

410021b8 <_CPU_ISR_install_raw_handler>:
410021b8:	9d e3 bf a0 	save  %sp, -96, %sp
410021bc:	40 00 10 10 	call  410061fc <xky_sparc_disable_interrupts>
410021c0:	b0 0e 20 ff 	and  %i0, 0xff, %i0
410021c4:	03 10 40 2b 	sethi  %hi(0x4100ac00), %g1
410021c8:	b1 2e 20 02 	sll  %i0, 2, %i0
410021cc:	82 10 60 68 	or  %g1, 0x68, %g1
410021d0:	c4 00 40 18 	ld  [ %g1 + %i0 ], %g2
410021d4:	c4 26 80 00 	st  %g2, [ %i2 ]
410021d8:	f2 20 40 18 	st  %i1, [ %g1 + %i0 ]
410021dc:	40 00 10 0c 	call  4100620c <xky_sparc_enable_interrupts>
410021e0:	01 00 00 00 	nop 
410021e4:	40 00 08 da 	call  4100454c <rtems_cache_invalidate_entire_instruction>
410021e8:	81 e8 00 00 	restore 
410021ec:	01 00 00 00 	nop 

410021f0 <_CPU_ISR_install_vector>:
410021f0:	9d e3 bf 98 	save  %sp, -104, %sp
410021f4:	40 00 10 02 	call  410061fc <xky_sparc_disable_interrupts>
410021f8:	01 00 00 00 	nop 
410021fc:	23 10 40 2a 	sethi  %hi(0x4100a800), %l1
41002200:	a0 0e 20 ff 	and  %i0, 0xff, %l0
41002204:	c2 04 60 bc 	ld  [ %l1 + 0xbc ], %g1
41002208:	a1 2c 20 02 	sll  %l0, 2, %l0
4100220c:	c2 00 40 10 	ld  [ %g1 + %l0 ], %g1
41002210:	c2 26 80 00 	st  %g1, [ %i2 ]
41002214:	40 00 0f fe 	call  4100620c <xky_sparc_enable_interrupts>
41002218:	01 00 00 00 	nop 
4100221c:	90 10 00 18 	mov  %i0, %o0
41002220:	94 07 bf fc 	add  %fp, -4, %o2
41002224:	13 10 40 09 	sethi  %hi(0x41002400), %o1
41002228:	7f ff ff e4 	call  410021b8 <_CPU_ISR_install_raw_handler>
4100222c:	92 12 60 20 	or  %o1, 0x20, %o1	! 41002420 <_ISR_Handler>
41002230:	40 00 0f f3 	call  410061fc <xky_sparc_disable_interrupts>
41002234:	01 00 00 00 	nop 
41002238:	c2 04 60 bc 	ld  [ %l1 + 0xbc ], %g1
4100223c:	f2 20 40 10 	st  %i1, [ %g1 + %l0 ]
41002240:	40 00 0f f3 	call  4100620c <xky_sparc_enable_interrupts>
41002244:	01 00 00 00 	nop 
41002248:	81 c7 e0 08 	ret 
4100224c:	81 e8 00 00 	restore 

41002250 <_CPU_Initialize>:
41002250:	9d e3 bf 68 	save  %sp, -152, %sp
41002254:	90 10 3f ff 	mov  -1, %o0
41002258:	40 00 0f 95 	call  410060ac <xky_syscall_get_partition_status>
4100225c:	92 07 bf c8 	add  %fp, -56, %o1
41002260:	c2 07 bf e4 	ld  [ %fp + -28 ], %g1
41002264:	80 88 60 02 	btst  2, %g1
41002268:	02 80 00 08 	be  41002288 <_CPU_Initialize+0x38>
4100226c:	03 10 40 2a 	sethi  %hi(0x4100a800), %g1
41002270:	03 10 40 2a 	sethi  %hi(0x4100a800), %g1
41002274:	82 10 62 40 	or  %g1, 0x240, %g1	! 4100aa40 <_CPU_Null_fp_context>
41002278:	90 07 bf fc 	add  %fp, -4, %o0
4100227c:	40 00 00 06 	call  41002294 <_CPU_Context_save_fp>
41002280:	c2 27 bf fc 	st  %g1, [ %fp + -4 ]
41002284:	03 10 40 2a 	sethi  %hi(0x4100a800), %g1
41002288:	c0 20 62 30 	clr  [ %g1 + 0x230 ]	! 4100aa30 <_CPU_ISR_Dispatch_disable>
4100228c:	81 c7 e0 08 	ret 
41002290:	81 e8 00 00 	restore 

41002294 <_CPU_Context_save_fp>:
41002294:	9d e3 bf a0 	save  %sp, -96, %sp
41002298:	9a 10 20 05 	mov  5, %o5
4100229c:	91 d0 20 82 	ta  0x82
410022a0:	e0 06 00 00 	ld  [ %i0 ], %l0
410022a4:	c1 3c 20 00 	std  %f0, [ %l0 ]
410022a8:	c5 3c 20 08 	std  %f2, [ %l0 + 8 ]
410022ac:	c9 3c 20 10 	std  %f4, [ %l0 + 0x10 ]
410022b0:	cd 3c 20 18 	std  %f6, [ %l0 + 0x18 ]
410022b4:	d1 3c 20 20 	std  %f8, [ %l0 + 0x20 ]
410022b8:	d5 3c 20 28 	std  %f10, [ %l0 + 0x28 ]
410022bc:	d9 3c 20 30 	std  %f12, [ %l0 + 0x30 ]
410022c0:	dd 3c 20 38 	std  %f14, [ %l0 + 0x38 ]
410022c4:	e1 3c 20 40 	std  %f16, [ %l0 + 0x40 ]
410022c8:	e5 3c 20 48 	std  %f18, [ %l0 + 0x48 ]
410022cc:	e9 3c 20 50 	std  %f20, [ %l0 + 0x50 ]
410022d0:	ed 3c 20 58 	std  %f22, [ %l0 + 0x58 ]
410022d4:	f1 3c 20 60 	std  %f24, [ %l0 + 0x60 ]
410022d8:	f5 3c 20 68 	std  %f26, [ %l0 + 0x68 ]
410022dc:	f9 3c 20 70 	std  %f28, [ %l0 + 0x70 ]
410022e0:	fd 3c 20 78 	std  %f30, [ %l0 + 0x78 ]
410022e4:	c1 2c 20 80 	st  %fsr, [ %l0 + 0x80 ]
410022e8:	81 c7 e0 08 	ret 
410022ec:	81 e8 00 00 	restore 

410022f0 <_CPU_Context_restore_fp>:
410022f0:	9d e3 bf a0 	save  %sp, -96, %sp
410022f4:	9a 10 20 05 	mov  5, %o5
410022f8:	91 d0 20 82 	ta  0x82
410022fc:	e0 06 00 00 	ld  [ %i0 ], %l0
41002300:	c1 1c 20 00 	ldd  [ %l0 ], %f0
41002304:	c5 1c 20 08 	ldd  [ %l0 + 8 ], %f2
41002308:	c9 1c 20 10 	ldd  [ %l0 + 0x10 ], %f4
4100230c:	cd 1c 20 18 	ldd  [ %l0 + 0x18 ], %f6
41002310:	d1 1c 20 20 	ldd  [ %l0 + 0x20 ], %f8
41002314:	d5 1c 20 28 	ldd  [ %l0 + 0x28 ], %f10
41002318:	d9 1c 20 30 	ldd  [ %l0 + 0x30 ], %f12
4100231c:	dd 1c 20 38 	ldd  [ %l0 + 0x38 ], %f14
41002320:	e1 1c 20 40 	ldd  [ %l0 + 0x40 ], %f16
41002324:	e5 1c 20 48 	ldd  [ %l0 + 0x48 ], %f18
41002328:	e9 1c 20 50 	ldd  [ %l0 + 0x50 ], %f20
4100232c:	ed 1c 20 58 	ldd  [ %l0 + 0x58 ], %f22
41002330:	f1 1c 20 60 	ldd  [ %l0 + 0x60 ], %f24
41002334:	f5 1c 20 68 	ldd  [ %l0 + 0x68 ], %f26
41002338:	f9 1c 20 70 	ldd  [ %l0 + 0x70 ], %f28
4100233c:	fd 1c 20 78 	ldd  [ %l0 + 0x78 ], %f30
41002340:	c1 0c 20 80 	ld  [ %l0 + 0x80 ], %fsr
41002344:	81 c7 e0 08 	ret 
41002348:	81 e8 00 00 	restore 

4100234c <_CPU_Context_switch>:
4100234c:	c2 22 20 04 	st  %g1, [ %o0 + 4 ]
41002350:	c4 3a 20 08 	std  %g2, [ %o0 + 8 ]
41002354:	c8 3a 20 10 	std  %g4, [ %o0 + 0x10 ]
41002358:	cc 3a 20 18 	std  %g6, [ %o0 + 0x18 ]
4100235c:	05 10 40 2a 	sethi  %hi(0x4100a800), %g2
41002360:	c4 00 a2 30 	ld  [ %g2 + 0x230 ], %g2	! 4100aa30 <_CPU_ISR_Dispatch_disable>
41002364:	e0 3a 20 20 	std  %l0, [ %o0 + 0x20 ]
41002368:	e4 3a 20 28 	std  %l2, [ %o0 + 0x28 ]
4100236c:	e8 3a 20 30 	std  %l4, [ %o0 + 0x30 ]
41002370:	ec 3a 20 38 	std  %l6, [ %o0 + 0x38 ]
41002374:	c4 22 20 84 	st  %g2, [ %o0 + 0x84 ]
41002378:	f0 3a 20 40 	std  %i0, [ %o0 + 0x40 ]
4100237c:	f4 3a 20 48 	std  %i2, [ %o0 + 0x48 ]
41002380:	f8 3a 20 50 	std  %i4, [ %o0 + 0x50 ]
41002384:	fc 3a 20 58 	std  %fp, [ %o0 + 0x58 ]
41002388:	d0 3a 20 60 	std  %o0, [ %o0 + 0x60 ]
4100238c:	d4 3a 20 68 	std  %o2, [ %o0 + 0x68 ]
41002390:	d8 3a 20 70 	std  %o4, [ %o0 + 0x70 ]
41002394:	dc 3a 20 78 	std  %sp, [ %o0 + 0x78 ]
41002398:	82 10 00 08 	mov  %o0, %g1
4100239c:	9a 10 20 08 	mov  8, %o5
410023a0:	91 d0 20 82 	ta  0x82
410023a4:	d0 20 60 80 	st  %o0, [ %g1 + 0x80 ]

410023a8 <_CPU_Context_restore_heir>:
410023a8:	91 d0 20 83 	ta  0x83
410023ac:	d0 02 60 80 	ld  [ %o1 + 0x80 ], %o0
410023b0:	9a 10 20 09 	mov  9, %o5
410023b4:	91 d0 20 82 	ta  0x82
410023b8:	c2 02 60 04 	ld  [ %o1 + 4 ], %g1
410023bc:	c4 1a 60 08 	ldd  [ %o1 + 8 ], %g2
410023c0:	c8 1a 60 10 	ldd  [ %o1 + 0x10 ], %g4
410023c4:	cc 1a 60 18 	ldd  [ %o1 + 0x18 ], %g6
410023c8:	d4 02 60 84 	ld  [ %o1 + 0x84 ], %o2
410023cc:	17 10 40 2a 	sethi  %hi(0x4100a800), %o3
410023d0:	e0 1a 60 20 	ldd  [ %o1 + 0x20 ], %l0
410023d4:	e4 1a 60 28 	ldd  [ %o1 + 0x28 ], %l2
410023d8:	e8 1a 60 30 	ldd  [ %o1 + 0x30 ], %l4
410023dc:	ec 1a 60 38 	ldd  [ %o1 + 0x38 ], %l6
410023e0:	d4 22 e2 30 	st  %o2, [ %o3 + 0x230 ]
410023e4:	f0 1a 60 40 	ldd  [ %o1 + 0x40 ], %i0
410023e8:	f4 1a 60 48 	ldd  [ %o1 + 0x48 ], %i2
410023ec:	f8 1a 60 50 	ldd  [ %o1 + 0x50 ], %i4
410023f0:	fc 1a 60 58 	ldd  [ %o1 + 0x58 ], %fp
410023f4:	9a 10 20 0d 	mov  0xd, %o5
410023f8:	91 d0 20 82 	ta  0x82
410023fc:	d4 1a 60 68 	ldd  [ %o1 + 0x68 ], %o2
41002400:	d8 1a 60 70 	ldd  [ %o1 + 0x70 ], %o4
41002404:	dc 1a 60 78 	ldd  [ %o1 + 0x78 ], %sp
41002408:	d0 1a 60 60 	ldd  [ %o1 + 0x60 ], %o0
4100240c:	81 c3 e0 08 	retl 
41002410:	01 00 00 00 	nop 

41002414 <_CPU_Context_restore>:
41002414:	9d e3 bf a0 	save  %sp, -96, %sp
41002418:	10 bf ff e4 	b  410023a8 <_CPU_Context_restore_heir>
4100241c:	92 10 00 18 	mov  %i0, %o1

41002420 <_ISR_Handler>:
41002420:	9a 10 20 08 	mov  8, %o5
41002424:	91 d0 20 82 	ta  0x82
41002428:	a0 10 00 08 	mov  %o0, %l0
4100242c:	80 8c e1 00 	btst  0x100, %l3
41002430:	22 80 00 05 	be,a   41002444 <save_isf>
41002434:	01 00 00 00 	nop 
41002438:	ac 10 00 11 	mov  %l1, %l6
4100243c:	a2 10 00 12 	mov  %l2, %l1
41002440:	a4 04 a0 04 	add  %l2, 4, %l2

41002444 <save_isf>:
41002444:	9c 27 a0 b0 	sub  %fp, 0xb0, %sp
41002448:	e0 3b a0 60 	std  %l0, [ %sp + 0x60 ]
4100244c:	e4 23 a0 68 	st  %l2, [ %sp + 0x68 ]
41002450:	c2 23 a0 6c 	st  %g1, [ %sp + 0x6c ]
41002454:	c4 3b a0 70 	std  %g2, [ %sp + 0x70 ]
41002458:	c8 3b a0 78 	std  %g4, [ %sp + 0x78 ]
4100245c:	cc 3b a0 80 	std  %g6, [ %sp + 0x80 ]
41002460:	f0 3b a0 88 	std  %i0, [ %sp + 0x88 ]
41002464:	f4 3b a0 90 	std  %i2, [ %sp + 0x90 ]
41002468:	f8 3b a0 98 	std  %i4, [ %sp + 0x98 ]
4100246c:	fc 3b a0 a0 	std  %fp, [ %sp + 0xa0 ]
41002470:	83 40 00 00 	rd  %y, %g1
41002474:	c2 23 a0 a8 	st  %g1, [ %sp + 0xa8 ]
41002478:	ec 23 a0 ac 	st  %l6, [ %sp + 0xac ]
4100247c:	8c 10 00 0e 	mov  %sp, %g6
41002480:	29 10 40 2a 	sethi  %hi(0x4100a800), %l4
41002484:	ec 05 21 68 	ld  [ %l4 + 0x168 ], %l6	! 4100a968 <_Thread_Dispatch_disable_level>
41002488:	2b 10 40 2a 	sethi  %hi(0x4100a800), %l5
4100248c:	ee 05 60 c0 	ld  [ %l5 + 0xc0 ], %l7	! 4100a8c0 <_ISR_Nest_level>
41002490:	ac 05 a0 01 	inc  %l6
41002494:	ec 25 21 68 	st  %l6, [ %l4 + 0x168 ]
41002498:	ae 05 e0 01 	inc  %l7
4100249c:	ee 25 60 c0 	st  %l7, [ %l5 + 0xc0 ]
410024a0:	bc 10 00 0e 	mov  %sp, %fp
410024a4:	ae a5 e0 01 	deccc  %l7
410024a8:	12 80 00 03 	bne  410024b4 <dont_switch_stacks>
410024ac:	09 10 40 2a 	sethi  %hi(0x4100a800), %g4
410024b0:	dc 01 22 34 	ld  [ %g4 + 0x234 ], %sp	! 4100aa34 <_CPU_Interrupt_stack_high>

410024b4 <dont_switch_stacks>:
410024b4:	9c 23 a0 60 	sub  %sp, 0x60, %sp
410024b8:	8a 10 00 10 	mov  %l0, %g5
410024bc:	88 0c e0 ff 	and  %l3, 0xff, %g4
410024c0:	80 a1 20 11 	cmp  %g4, 0x11
410024c4:	06 80 00 08 	bl  410024e4 <dont_fix_pil>
410024c8:	80 a1 20 1f 	cmp  %g4, 0x1f
410024cc:	14 80 00 06 	bg  410024e4 <dont_fix_pil>
410024d0:	89 29 20 08 	sll  %g4, 8, %g4
410024d4:	88 09 2f 00 	and  %g4, 0xf00, %g4
410024d8:	8a 2c 2f 00 	andn  %l0, 0xf00, %g5
410024dc:	10 80 00 03 	b  410024e8 <pil_fixed>
410024e0:	8a 11 00 05 	or  %g4, %g5, %g5

410024e4 <dont_fix_pil>:
410024e4:	8a 11 6f 00 	or  %g5, 0xf00, %g5

410024e8 <pil_fixed>:
410024e8:	90 11 60 20 	or  %g5, 0x20, %o0
410024ec:	9a 10 20 09 	mov  9, %o5
410024f0:	91 d0 20 82 	ta  0x82

410024f4 <dont_fix_pil2>:
410024f4:	92 10 00 06 	mov  %g6, %o1
410024f8:	09 10 40 2a 	sethi  %hi(0x4100a800), %g4
410024fc:	c8 01 20 bc 	ld  [ %g4 + 0xbc ], %g4	! 4100a8bc <_ISR_Vector_table>
41002500:	80 91 00 00 	tst  %g4
41002504:	02 80 00 09 	be  41002528 <skip_user_handler>
41002508:	8a 0c e0 ff 	and  %l3, 0xff, %g5
4100250c:	8b 29 60 02 	sll  %g5, 2, %g5
41002510:	c8 01 00 05 	ld  [ %g4 + %g5 ], %g4
41002514:	80 91 00 00 	tst  %g4
41002518:	02 80 00 04 	be  41002528 <skip_user_handler>
4100251c:	90 10 00 13 	mov  %l3, %o0
41002520:	9f c1 00 00 	call  %g4
41002524:	01 00 00 00 	nop 

41002528 <skip_user_handler>:
41002528:	92 10 00 10 	mov  %l0, %o1
4100252c:	9a 10 20 09 	mov  9, %o5
41002530:	91 d0 20 82 	ta  0x82
41002534:	ac 25 a0 01 	dec  %l6
41002538:	ec 25 21 68 	st  %l6, [ %l4 + 0x168 ]
4100253c:	ee 25 60 c0 	st  %l7, [ %l5 + 0xc0 ]
41002540:	80 95 80 00 	tst  %l6
41002544:	12 80 00 21 	bne  410025c8 <simple_return>
41002548:	2d 10 40 2a 	sethi  %hi(0x4100a800), %l6
4100254c:	ee 05 a2 30 	ld  [ %l6 + 0x230 ], %l7	! 4100aa30 <_CPU_ISR_Dispatch_disable>
41002550:	80 95 c0 00 	tst  %l7
41002554:	12 80 00 1d 	bne  410025c8 <simple_return>
41002558:	29 10 40 2a 	sethi  %hi(0x4100a800), %l4
4100255c:	ea 05 21 c0 	ld  [ %l4 + 0x1c0 ], %l5	! 4100a9c0 <_Context_Switch_necessary>
41002560:	80 95 40 00 	tst  %l5
41002564:	02 80 00 19 	be  410025c8 <simple_return>
41002568:	01 00 00 00 	nop 

4100256c <_ISR_Dispatch>:
4100256c:	ac 10 20 01 	mov  1, %l6	! 1 <PROM_START+0x1>
41002570:	2b 10 40 2a 	sethi  %hi(0x4100a800), %l5
41002574:	ec 25 62 30 	st  %l6, [ %l5 + 0x230 ]	! 4100aa30 <_CPU_ISR_Dispatch_disable>
41002578:	9c 27 a0 60 	sub  %fp, 0x60, %sp
4100257c:	ae 14 20 20 	or  %l0, 0x20, %l7
41002580:	90 10 00 17 	mov  %l7, %o0
41002584:	9a 10 20 09 	mov  9, %o5
41002588:	91 d0 20 82 	ta  0x82

4100258c <isr_dispatch>:
4100258c:	7f ff fb 2e 	call  41001244 <_Thread_Dispatch>
41002590:	01 00 00 00 	nop 
41002594:	9a 10 20 00 	clr  %o5	! 0 <PROM_START>
41002598:	91 d0 20 82 	ta  0x82
4100259c:	29 10 40 2a 	sethi  %hi(0x4100a800), %l4
410025a0:	ea 05 21 c0 	ld  [ %l4 + 0x1c0 ], %l5	! 4100a9c0 <_Context_Switch_necessary>
410025a4:	80 95 40 00 	tst  %l5
410025a8:	02 80 00 06 	be  410025c0 <allow_nest_again>
410025ac:	01 00 00 00 	nop 

410025b0 <dispatchAgain>:
410025b0:	9a 10 20 01 	mov  1, %o5	! 1 <PROM_START+0x1>
410025b4:	91 d0 20 82 	ta  0x82
410025b8:	10 bf ff f5 	b  4100258c <isr_dispatch>
410025bc:	01 00 00 00 	nop 

410025c0 <allow_nest_again>:
410025c0:	2b 10 40 2a 	sethi  %hi(0x4100a800), %l5
410025c4:	c0 25 62 30 	clr  [ %l5 + 0x230 ]	! 4100aa30 <_CPU_ISR_Dispatch_disable>

410025c8 <simple_return>:
410025c8:	ea 07 a0 a8 	ld  [ %fp + 0xa8 ], %l5
410025cc:	81 85 60 00 	mov  %l5, %y
410025d0:	e0 1f a0 60 	ldd  [ %fp + 0x60 ], %l0
410025d4:	e4 07 a0 68 	ld  [ %fp + 0x68 ], %l2
410025d8:	a0 2c 20 20 	andn  %l0, 0x20, %l0
410025dc:	94 10 00 1e 	mov  %fp, %o2
410025e0:	c2 07 a0 6c 	ld  [ %fp + 0x6c ], %g1
410025e4:	c4 1f a0 70 	ldd  [ %fp + 0x70 ], %g2
410025e8:	c8 1f a0 78 	ldd  [ %fp + 0x78 ], %g4
410025ec:	cc 1f a0 80 	ldd  [ %fp + 0x80 ], %g6
410025f0:	f0 1f a0 88 	ldd  [ %fp + 0x88 ], %i0
410025f4:	f4 1f a0 90 	ldd  [ %fp + 0x90 ], %i2
410025f8:	f8 1f a0 98 	ldd  [ %fp + 0x98 ], %i4
410025fc:	fc 1f a0 a0 	ldd  [ %fp + 0xa0 ], %fp
41002600:	90 10 00 10 	mov  %l0, %o0
41002604:	9a 10 20 09 	mov  9, %o5
41002608:	91 d0 20 82 	ta  0x82
4100260c:	9a 10 20 0d 	mov  0xd, %o5
41002610:	91 d0 20 82 	ta  0x82
41002614:	90 10 00 11 	mov  %l1, %o0
41002618:	92 10 00 12 	mov  %l2, %o1
4100261c:	9a 10 20 0a 	mov  0xa, %o5
41002620:	91 d0 20 82 	ta  0x82

41002624 <_Interrupt_Manager_initialization>:
41002624:	81 c3 e0 08 	retl 
41002628:	01 00 00 00 	nop 

4100262c <rtems_task_create>:
4100262c:	9d e3 bf 90 	save  %sp, -112, %sp
41002630:	a4 10 00 18 	mov  %i0, %l2
41002634:	80 a7 60 00 	cmp  %i5, 0
41002638:	02 80 00 32 	be  41002700 <rtems_task_create+0xd4>
4100263c:	b0 10 20 09 	mov  9, %i0
41002640:	80 a4 a0 00 	cmp  %l2, 0
41002644:	02 80 00 2f 	be  41002700 <rtems_task_create+0xd4>
41002648:	b0 10 20 03 	mov  3, %i0
4100264c:	03 00 00 20 	sethi  %hi(0x8000), %g1
41002650:	80 8f 00 01 	btst  %i4, %g1
41002654:	12 80 00 05 	bne  41002668 <rtems_task_create+0x3c>
41002658:	82 06 7f ff 	add  %i1, -1, %g1
4100265c:	80 a0 60 fe 	cmp  %g1, 0xfe
41002660:	18 80 00 28 	bgu  41002700 <rtems_task_create+0xd4>
41002664:	b0 10 20 13 	mov  0x13, %i0
41002668:	21 10 40 2a 	sethi  %hi(0x4100a800), %l0
4100266c:	c2 04 21 68 	ld  [ %l0 + 0x168 ], %g1	! 4100a968 <_Thread_Dispatch_disable_level>
41002670:	82 00 60 01 	inc  %g1
41002674:	c2 24 21 68 	st  %g1, [ %l0 + 0x168 ]
41002678:	27 10 40 2a 	sethi  %hi(0x4100a800), %l3
4100267c:	40 00 03 11 	call  410032c0 <_Objects_Allocate>
41002680:	90 14 e2 c8 	or  %l3, 0x2c8, %o0	! 4100aac8 <_RTEMS_tasks_Information>
41002684:	a2 92 20 00 	orcc  %o0, 0, %l1
41002688:	02 80 00 35 	be  4100275c <rtems_task_create+0x130>
4100268c:	82 0e e0 0f 	and  %i3, 0xf, %g1
41002690:	9b 36 e0 08 	srl  %i3, 8, %o5
41002694:	e4 23 a0 68 	st  %l2, [ %sp + 0x68 ]
41002698:	c0 23 a0 60 	clr  [ %sp + 0x60 ]
4100269c:	c2 23 a0 64 	st  %g1, [ %sp + 0x64 ]
410026a0:	90 14 e2 c8 	or  %l3, 0x2c8, %o0
410026a4:	94 10 00 1a 	mov  %i2, %o2
410026a8:	96 0f 20 01 	and  %i4, 1, %o3
410026ac:	98 10 00 19 	mov  %i1, %o4
410026b0:	9a 1b 60 01 	xor  %o5, 1, %o5
410026b4:	b7 36 e0 09 	srl  %i3, 9, %i3
410026b8:	9a 0b 60 01 	and  %o5, 1, %o5
410026bc:	b6 0e e0 01 	and  %i3, 1, %i3
410026c0:	92 10 00 11 	mov  %l1, %o1
410026c4:	7f ff fb 53 	call  41001410 <_Thread_Initialize>
410026c8:	f6 23 a0 5c 	st  %i3, [ %sp + 0x5c ]
410026cc:	80 a2 20 00 	cmp  %o0, 0
410026d0:	02 80 00 0e 	be  41002708 <rtems_task_create+0xdc>
410026d4:	c2 04 60 08 	ld  [ %l1 + 8 ], %g1
410026d8:	c2 27 40 00 	st  %g1, [ %i5 ]
410026dc:	c2 04 21 68 	ld  [ %l0 + 0x168 ], %g1
410026e0:	82 00 7f ff 	add  %g1, -1, %g1
410026e4:	c2 24 21 68 	st  %g1, [ %l0 + 0x168 ]
410026e8:	c2 04 21 68 	ld  [ %l0 + 0x168 ], %g1
410026ec:	80 a0 60 00 	cmp  %g1, 0
410026f0:	12 80 00 04 	bne  41002700 <rtems_task_create+0xd4>
410026f4:	b0 10 20 00 	clr  %i0
410026f8:	7f ff fa d3 	call  41001244 <_Thread_Dispatch>
410026fc:	01 00 00 00 	nop 
41002700:	81 c7 e0 08 	ret 
41002704:	81 e8 00 00 	restore 
41002708:	07 10 40 2a 	sethi  %hi(0x4100a800), %g3
4100270c:	85 30 60 1b 	srl  %g1, 0x1b, %g2
41002710:	86 10 e0 c4 	or  %g3, 0xc4, %g3
41002714:	85 28 a0 02 	sll  %g2, 2, %g2
41002718:	83 30 60 16 	srl  %g1, 0x16, %g1
4100271c:	82 08 60 1c 	and  %g1, 0x1c, %g1
41002720:	c2 00 c0 01 	ld  [ %g3 + %g1 ], %g1
41002724:	92 10 00 11 	mov  %l1, %o1
41002728:	7f ff f9 9a 	call  41000d90 <_Objects_Free>
4100272c:	d0 00 40 02 	ld  [ %g1 + %g2 ], %o0
41002730:	c2 04 21 68 	ld  [ %l0 + 0x168 ], %g1
41002734:	82 00 7f ff 	add  %g1, -1, %g1
41002738:	c2 24 21 68 	st  %g1, [ %l0 + 0x168 ]
4100273c:	c2 04 21 68 	ld  [ %l0 + 0x168 ], %g1
41002740:	80 a0 60 00 	cmp  %g1, 0
41002744:	12 bf ff ef 	bne  41002700 <rtems_task_create+0xd4>
41002748:	b0 10 20 0d 	mov  0xd, %i0
4100274c:	7f ff fa be 	call  41001244 <_Thread_Dispatch>
41002750:	01 00 00 00 	nop 
41002754:	81 c7 e0 08 	ret 
41002758:	81 e8 00 00 	restore 
4100275c:	c2 04 21 68 	ld  [ %l0 + 0x168 ], %g1
41002760:	82 00 7f ff 	add  %g1, -1, %g1
41002764:	c2 24 21 68 	st  %g1, [ %l0 + 0x168 ]
41002768:	c2 04 21 68 	ld  [ %l0 + 0x168 ], %g1
4100276c:	80 a0 60 00 	cmp  %g1, 0
41002770:	02 bf ff f7 	be  4100274c <rtems_task_create+0x120>
41002774:	b0 10 20 05 	mov  5, %i0
41002778:	81 c7 e0 08 	ret 
4100277c:	81 e8 00 00 	restore 

41002780 <_RTEMS_tasks_Start_extension>:
41002780:	c2 02 61 8c 	ld  [ %o1 + 0x18c ], %g1
41002784:	81 c3 e0 08 	retl 
41002788:	c0 20 60 40 	clr  [ %g1 + 0x40 ]

4100278c <_RTEMS_tasks_Switch_extension>:
4100278c:	c2 02 21 94 	ld  [ %o0 + 0x194 ], %g1
41002790:	80 a0 60 00 	cmp  %g1, 0
41002794:	22 80 00 0c 	be,a   410027c4 <_RTEMS_tasks_Switch_extension+0x38>
41002798:	c2 02 61 94 	ld  [ %o1 + 0x194 ], %g1
4100279c:	c4 00 60 04 	ld  [ %g1 + 4 ], %g2
410027a0:	c6 00 80 00 	ld  [ %g2 ], %g3
410027a4:	c6 20 60 0c 	st  %g3, [ %g1 + 0xc ]
410027a8:	c6 00 60 08 	ld  [ %g1 + 8 ], %g3
410027ac:	c6 20 80 00 	st  %g3, [ %g2 ]
410027b0:	c2 00 40 00 	ld  [ %g1 ], %g1
410027b4:	80 a0 60 00 	cmp  %g1, 0
410027b8:	32 bf ff fa 	bne,a   410027a0 <_RTEMS_tasks_Switch_extension+0x14>
410027bc:	c4 00 60 04 	ld  [ %g1 + 4 ], %g2
410027c0:	c2 02 61 94 	ld  [ %o1 + 0x194 ], %g1
410027c4:	80 a0 60 00 	cmp  %g1, 0
410027c8:	02 80 00 0b 	be  410027f4 <_RTEMS_tasks_Switch_extension+0x68>
410027cc:	01 00 00 00 	nop 
410027d0:	c4 00 60 04 	ld  [ %g1 + 4 ], %g2
410027d4:	c6 00 80 00 	ld  [ %g2 ], %g3
410027d8:	c6 20 60 08 	st  %g3, [ %g1 + 8 ]
410027dc:	c6 00 60 0c 	ld  [ %g1 + 0xc ], %g3
410027e0:	c6 20 80 00 	st  %g3, [ %g2 ]
410027e4:	c2 00 40 00 	ld  [ %g1 ], %g1
410027e8:	80 a0 60 00 	cmp  %g1, 0
410027ec:	32 bf ff fa 	bne,a   410027d4 <_RTEMS_tasks_Switch_extension+0x48>
410027f0:	c4 00 60 04 	ld  [ %g1 + 4 ], %g2
410027f4:	81 c3 e0 08 	retl 
410027f8:	01 00 00 00 	nop 

410027fc <_RTEMS_tasks_Initialize_user_tasks>:
410027fc:	9d e3 bf a0 	save  %sp, -96, %sp
41002800:	03 10 40 19 	sethi  %hi(0x41006400), %g1
41002804:	c2 00 62 b4 	ld  [ %g1 + 0x2b4 ], %g1	! 410066b4 <_RTEMS_tasks_Initialize_user_tasks_p>
41002808:	80 a0 60 00 	cmp  %g1, 0
4100280c:	02 80 00 04 	be  4100281c <_RTEMS_tasks_Initialize_user_tasks+0x20>
41002810:	01 00 00 00 	nop 
41002814:	9f c0 40 00 	call  %g1
41002818:	01 00 00 00 	nop 
4100281c:	81 c7 e0 08 	ret 
41002820:	81 e8 00 00 	restore 

41002824 <_RTEMS_tasks_Manager_initialization>:
41002824:	9d e3 bf 98 	save  %sp, -104, %sp
41002828:	82 10 20 04 	mov  4, %g1
4100282c:	96 10 00 18 	mov  %i0, %o3
41002830:	92 10 20 02 	mov  2, %o1
41002834:	94 10 20 01 	mov  1, %o2
41002838:	98 10 21 98 	mov  0x198, %o4
4100283c:	9a 10 20 00 	clr  %o5
41002840:	c2 23 a0 5c 	st  %g1, [ %sp + 0x5c ]
41002844:	11 10 40 2a 	sethi  %hi(0x4100a800), %o0
41002848:	7f ff f9 7c 	call  41000e38 <_Objects_Initialize_information>
4100284c:	90 12 22 c8 	or  %o0, 0x2c8, %o0	! 4100aac8 <_RTEMS_tasks_Information>
41002850:	11 10 40 19 	sethi  %hi(0x41006400), %o0
41002854:	90 12 22 e4 	or  %o0, 0x2e4, %o0	! 410066e4 <_RTEMS_tasks_User_extensions>
41002858:	40 00 05 9e 	call  41003ed0 <_User_extensions_Add_API_set>
4100285c:	31 10 40 19 	sethi  %hi(0x41006400), %i0
41002860:	7f ff f8 ee 	call  41000c18 <_API_extensions_Add>
41002864:	91 ee 22 d0 	restore  %i0, 0x2d0, %o0
41002868:	01 00 00 00 	nop 

4100286c <_RTEMS_tasks_Delete_extension>:
4100286c:	9d e3 bf a0 	save  %sp, -96, %sp
41002870:	e8 06 61 94 	ld  [ %i1 + 0x194 ], %l4
41002874:	c0 26 61 94 	clr  [ %i1 + 0x194 ]
41002878:	80 a5 20 00 	cmp  %l4, 0
4100287c:	02 80 00 26 	be  41002914 <_RTEMS_tasks_Delete_extension+0xa8>
41002880:	27 10 40 2a 	sethi  %hi(0x4100a800), %l3
41002884:	25 10 40 19 	sethi  %hi(0x41006400), %l2
41002888:	a2 14 e2 04 	or  %l3, 0x204, %l1
4100288c:	10 80 00 0e 	b  410028c4 <_RTEMS_tasks_Delete_extension+0x58>
41002890:	a4 14 a3 94 	or  %l2, 0x394, %l2
41002894:	c2 05 20 10 	ld  [ %l4 + 0x10 ], %g1
41002898:	80 a0 60 00 	cmp  %g1, 0
4100289c:	02 80 00 05 	be  410028b0 <_RTEMS_tasks_Delete_extension+0x44>
410028a0:	92 10 00 14 	mov  %l4, %o1
410028a4:	9f c0 40 00 	call  %g1
410028a8:	d0 05 20 0c 	ld  [ %l4 + 0xc ], %o0
410028ac:	92 10 00 14 	mov  %l4, %o1
410028b0:	40 00 01 f7 	call  4100308c <_Heap_Free>
410028b4:	90 10 00 11 	mov  %l1, %o0
410028b8:	a8 94 20 00 	orcc  %l0, 0, %l4
410028bc:	22 80 00 17 	be,a   41002918 <_RTEMS_tasks_Delete_extension+0xac>
410028c0:	90 14 e2 04 	or  %l3, 0x204, %o0
410028c4:	c2 04 80 00 	ld  [ %l2 ], %g1
410028c8:	80 a6 40 01 	cmp  %i1, %g1
410028cc:	12 bf ff f2 	bne  41002894 <_RTEMS_tasks_Delete_extension+0x28>
410028d0:	e0 05 00 00 	ld  [ %l4 ], %l0
410028d4:	c2 05 20 10 	ld  [ %l4 + 0x10 ], %g1
410028d8:	80 a0 60 00 	cmp  %g1, 0
410028dc:	22 80 00 06 	be,a   410028f4 <_RTEMS_tasks_Delete_extension+0x88>
410028e0:	c2 05 20 04 	ld  [ %l4 + 4 ], %g1
410028e4:	c4 05 20 04 	ld  [ %l4 + 4 ], %g2
410028e8:	9f c0 40 00 	call  %g1
410028ec:	d0 00 80 00 	ld  [ %g2 ], %o0
410028f0:	c2 05 20 04 	ld  [ %l4 + 4 ], %g1
410028f4:	c4 05 20 08 	ld  [ %l4 + 8 ], %g2
410028f8:	92 10 00 14 	mov  %l4, %o1
410028fc:	c4 20 40 00 	st  %g2, [ %g1 ]
41002900:	40 00 01 e3 	call  4100308c <_Heap_Free>
41002904:	90 10 00 11 	mov  %l1, %o0
41002908:	a8 94 20 00 	orcc  %l0, 0, %l4
4100290c:	32 bf ff ef 	bne,a   410028c8 <_RTEMS_tasks_Delete_extension+0x5c>
41002910:	c2 04 80 00 	ld  [ %l2 ], %g1
41002914:	90 14 e2 04 	or  %l3, 0x204, %o0
41002918:	40 00 01 dd 	call  4100308c <_Heap_Free>
4100291c:	d2 06 61 8c 	ld  [ %i1 + 0x18c ], %o1
41002920:	c0 26 61 8c 	clr  [ %i1 + 0x18c ]
41002924:	81 c7 e0 08 	ret 
41002928:	81 e8 00 00 	restore 

4100292c <_RTEMS_tasks_Create_extension>:
4100292c:	9d e3 bf a0 	save  %sp, -96, %sp
41002930:	11 10 40 2a 	sethi  %hi(0x4100a800), %o0
41002934:	92 10 20 48 	mov  0x48, %o1
41002938:	90 12 22 04 	or  %o0, 0x204, %o0
4100293c:	40 00 01 9b 	call  41002fa8 <_Heap_Allocate>
41002940:	b0 10 20 00 	clr  %i0
41002944:	80 a2 20 00 	cmp  %o0, 0
41002948:	02 80 00 0b 	be  41002974 <_RTEMS_tasks_Create_extension+0x48>
4100294c:	82 10 20 00 	clr  %g1
41002950:	c0 26 61 94 	clr  [ %i1 + 0x194 ]
41002954:	d0 26 61 8c 	st  %o0, [ %i1 + 0x18c ]
41002958:	c0 22 20 40 	clr  [ %o0 + 0x40 ]
4100295c:	c0 22 00 01 	clr  [ %o0 + %g1 ]
41002960:	82 00 60 04 	add  %g1, 4, %g1
41002964:	80 a0 60 40 	cmp  %g1, 0x40
41002968:	32 bf ff fe 	bne,a   41002960 <_RTEMS_tasks_Create_extension+0x34>
4100296c:	c0 22 00 01 	clr  [ %o0 + %g1 ]
41002970:	b0 10 20 01 	mov  1, %i0
41002974:	81 c7 e0 08 	ret 
41002978:	81 e8 00 00 	restore 

4100297c <_Chain_Extract>:
4100297c:	9d e3 bf a0 	save  %sp, -96, %sp
41002980:	40 00 0e 1f 	call  410061fc <xky_sparc_disable_interrupts>
41002984:	01 00 00 00 	nop 
41002988:	c4 06 20 04 	ld  [ %i0 + 4 ], %g2
4100298c:	c2 06 00 00 	ld  [ %i0 ], %g1
41002990:	c2 20 80 00 	st  %g1, [ %g2 ]
41002994:	c4 20 60 04 	st  %g2, [ %g1 + 4 ]
41002998:	40 00 0e 1d 	call  4100620c <xky_sparc_enable_interrupts>
4100299c:	91 e8 00 08 	restore  %g0, %o0, %o0
410029a0:	01 00 00 00 	nop 

410029a4 <_CORE_mutex_Surrender>:
410029a4:	9d e3 bf a0 	save  %sp, -96, %sp
410029a8:	80 a6 a0 01 	cmp  %i2, 1
410029ac:	02 80 00 1d 	be  41002a20 <_CORE_mutex_Surrender+0x7c>
410029b0:	e2 06 20 64 	ld  [ %i0 + 0x64 ], %l1
410029b4:	c2 06 20 4c 	ld  [ %i0 + 0x4c ], %g1
410029b8:	80 a0 60 00 	cmp  %g1, 0
410029bc:	02 80 00 0c 	be  410029ec <_CORE_mutex_Surrender+0x48>
410029c0:	03 10 40 19 	sethi  %hi(0x41006400), %g1
410029c4:	c2 00 63 94 	ld  [ %g1 + 0x394 ], %g1	! 41006794 <_Thread_Executing>
410029c8:	80 a4 40 01 	cmp  %l1, %g1
410029cc:	02 80 00 04 	be  410029dc <_CORE_mutex_Surrender+0x38>
410029d0:	03 10 40 2a 	sethi  %hi(0x4100a800), %g1
410029d4:	81 c7 e0 08 	ret 
410029d8:	91 e8 20 03 	restore  %g0, 3, %o0
410029dc:	c2 00 60 c0 	ld  [ %g1 + 0xc0 ], %g1
410029e0:	80 a0 60 00 	cmp  %g1, 0
410029e4:	12 bf ff fc 	bne  410029d4 <_CORE_mutex_Surrender+0x30>
410029e8:	01 00 00 00 	nop 
410029ec:	c2 06 20 5c 	ld  [ %i0 + 0x5c ], %g1
410029f0:	80 a0 60 00 	cmp  %g1, 0
410029f4:	02 80 00 09 	be  41002a18 <_CORE_mutex_Surrender+0x74>
410029f8:	82 00 7f ff 	add  %g1, -1, %g1
410029fc:	80 a0 60 00 	cmp  %g1, 0
41002a00:	02 80 00 0e 	be  41002a38 <_CORE_mutex_Surrender+0x94>
41002a04:	c2 26 20 5c 	st  %g1, [ %i0 + 0x5c ]
41002a08:	c2 06 20 48 	ld  [ %i0 + 0x48 ], %g1
41002a0c:	80 a0 60 00 	cmp  %g1, 0
41002a10:	12 80 00 97 	bne  41002c6c <_CORE_mutex_Surrender+0x2c8>
41002a14:	90 10 20 00 	clr  %o0
41002a18:	81 c7 e0 08 	ret 
41002a1c:	91 e8 20 00 	restore  %g0, 0, %o0
41002a20:	c2 06 20 5c 	ld  [ %i0 + 0x5c ], %g1
41002a24:	80 a0 60 00 	cmp  %g1, 0
41002a28:	02 80 00 39 	be  41002b0c <_CORE_mutex_Surrender+0x168>
41002a2c:	90 10 20 00 	clr  %o0
41002a30:	82 00 7f ff 	add  %g1, -1, %g1
41002a34:	c2 26 20 5c 	st  %g1, [ %i0 + 0x5c ]
41002a38:	c2 06 20 50 	ld  [ %i0 + 0x50 ], %g1
41002a3c:	80 a0 60 02 	cmp  %g1, 2
41002a40:	02 80 00 44 	be  41002b50 <_CORE_mutex_Surrender+0x1ac>
41002a44:	80 a0 60 03 	cmp  %g1, 3
41002a48:	22 80 00 43 	be,a   41002b54 <_CORE_mutex_Surrender+0x1b0>
41002a4c:	c2 04 60 1c 	ld  [ %l1 + 0x1c ], %g1
41002a50:	7f ff ff cb 	call  4100297c <_Chain_Extract>
41002a54:	90 10 00 18 	mov  %i0, %o0
41002a58:	90 06 20 08 	add  %i0, 8, %o0
41002a5c:	c0 26 00 00 	clr  [ %i0 ]
41002a60:	40 00 03 64 	call  410037f0 <_Thread_queue_Dequeue>
41002a64:	c0 26 20 04 	clr  [ %i0 + 4 ]
41002a68:	c2 06 20 50 	ld  [ %i0 + 0x50 ], %g1
41002a6c:	a0 10 00 08 	mov  %o0, %l0
41002a70:	80 a0 60 02 	cmp  %g1, 2
41002a74:	02 80 00 45 	be  41002b88 <_CORE_mutex_Surrender+0x1e4>
41002a78:	92 10 20 00 	clr  %o1
41002a7c:	80 a0 60 03 	cmp  %g1, 3
41002a80:	02 80 00 59 	be  41002be4 <_CORE_mutex_Surrender+0x240>
41002a84:	05 10 40 19 	sethi  %hi(0x41006400), %g2
41002a88:	c0 26 20 64 	clr  [ %i0 + 0x64 ]
41002a8c:	c0 26 20 68 	clr  [ %i0 + 0x68 ]
41002a90:	80 a0 60 02 	cmp  %g1, 2
41002a94:	02 80 00 23 	be  41002b20 <_CORE_mutex_Surrender+0x17c>
41002a98:	c0 26 20 5c 	clr  [ %i0 + 0x5c ]
41002a9c:	80 a0 60 03 	cmp  %g1, 3
41002aa0:	22 80 00 21 	be,a   41002b24 <_CORE_mutex_Surrender+0x180>
41002aa4:	c2 04 60 1c 	ld  [ %l1 + 0x1c ], %g1
41002aa8:	80 a4 20 00 	cmp  %l0, 0
41002aac:	02 80 00 4a 	be  41002bd4 <_CORE_mutex_Surrender+0x230>
41002ab0:	90 04 20 50 	add  %l0, 0x50, %o0
41002ab4:	c2 04 20 08 	ld  [ %l0 + 8 ], %g1
41002ab8:	c2 26 20 68 	st  %g1, [ %i0 + 0x68 ]
41002abc:	82 10 20 01 	mov  1, %g1
41002ac0:	e0 26 20 64 	st  %l0, [ %i0 + 0x64 ]
41002ac4:	c2 26 20 5c 	st  %g1, [ %i0 + 0x5c ]
41002ac8:	c0 24 20 68 	clr  [ %l0 + 0x68 ]
41002acc:	7f ff f8 5a 	call  41000c34 <_Chain_Append>
41002ad0:	92 10 00 18 	mov  %i0, %o1
41002ad4:	c2 06 20 50 	ld  [ %i0 + 0x50 ], %g1
41002ad8:	80 a0 60 02 	cmp  %g1, 2
41002adc:	22 80 00 53 	be,a   41002c28 <_CORE_mutex_Surrender+0x284>
41002ae0:	c2 04 20 1c 	ld  [ %l0 + 0x1c ], %g1
41002ae4:	0a bf ff cd 	bcs  41002a18 <_CORE_mutex_Surrender+0x74>
41002ae8:	80 a0 60 03 	cmp  %g1, 3
41002aec:	02 80 00 53 	be  41002c38 <_CORE_mutex_Surrender+0x294>
41002af0:	90 10 20 00 	clr  %o0
41002af4:	92 10 20 01 	mov  1, %o1
41002af8:	94 10 20 23 	mov  0x23, %o2
41002afc:	7f ff f8 69 	call  41000ca0 <_Internal_error_Occurred>
41002b00:	b0 10 20 00 	clr  %i0
41002b04:	81 c7 e0 08 	ret 
41002b08:	81 e8 00 00 	restore 
41002b0c:	92 10 20 01 	mov  1, %o1
41002b10:	7f ff f8 64 	call  41000ca0 <_Internal_error_Occurred>
41002b14:	94 10 20 29 	mov  0x29, %o2
41002b18:	10 bf ff c6 	b  41002a30 <_CORE_mutex_Surrender+0x8c>
41002b1c:	c2 06 20 5c 	ld  [ %i0 + 0x5c ], %g1
41002b20:	c2 04 60 1c 	ld  [ %l1 + 0x1c ], %g1
41002b24:	80 a0 60 00 	cmp  %g1, 0
41002b28:	12 80 00 38 	bne  41002c08 <_CORE_mutex_Surrender+0x264>
41002b2c:	c2 04 60 14 	ld  [ %l1 + 0x14 ], %g1
41002b30:	d2 04 60 18 	ld  [ %l1 + 0x18 ], %o1
41002b34:	80 a2 40 01 	cmp  %o1, %g1
41002b38:	02 bf ff dc 	be  41002aa8 <_CORE_mutex_Surrender+0x104>
41002b3c:	90 10 00 11 	mov  %l1, %o0
41002b40:	40 00 02 5c 	call  410034b0 <_Thread_Change_priority>
41002b44:	94 10 20 01 	mov  1, %o2
41002b48:	10 bf ff d9 	b  41002aac <_CORE_mutex_Surrender+0x108>
41002b4c:	80 a4 20 00 	cmp  %l0, 0
41002b50:	c2 04 60 1c 	ld  [ %l1 + 0x1c ], %g1
41002b54:	82 00 7f ff 	add  %g1, -1, %g1
41002b58:	90 10 00 18 	mov  %i0, %o0
41002b5c:	7f ff ff 88 	call  4100297c <_Chain_Extract>
41002b60:	c2 24 60 1c 	st  %g1, [ %l1 + 0x1c ]
41002b64:	90 06 20 08 	add  %i0, 8, %o0
41002b68:	c0 26 00 00 	clr  [ %i0 ]
41002b6c:	40 00 03 21 	call  410037f0 <_Thread_queue_Dequeue>
41002b70:	c0 26 20 04 	clr  [ %i0 + 4 ]
41002b74:	c2 06 20 50 	ld  [ %i0 + 0x50 ], %g1
41002b78:	a0 10 00 08 	mov  %o0, %l0
41002b7c:	80 a0 60 02 	cmp  %g1, 2
41002b80:	12 bf ff bf 	bne  41002a7c <_CORE_mutex_Surrender+0xd8>
41002b84:	92 10 20 00 	clr  %o1
41002b88:	80 a2 20 00 	cmp  %o0, 0
41002b8c:	02 80 00 08 	be  41002bac <_CORE_mutex_Surrender+0x208>
41002b90:	05 10 40 19 	sethi  %hi(0x41006400), %g2
41002b94:	7f ff ff 7a 	call  4100297c <_Chain_Extract>
41002b98:	90 02 20 20 	add  %o0, 0x20, %o0
41002b9c:	c2 06 20 50 	ld  [ %i0 + 0x50 ], %g1
41002ba0:	c0 24 20 20 	clr  [ %l0 + 0x20 ]
41002ba4:	c0 24 20 24 	clr  [ %l0 + 0x24 ]
41002ba8:	05 10 40 19 	sethi  %hi(0x41006400), %g2
41002bac:	c4 00 a3 94 	ld  [ %g2 + 0x394 ], %g2	! 41006794 <_Thread_Executing>
41002bb0:	c6 00 a0 5c 	ld  [ %g2 + 0x5c ], %g3
41002bb4:	84 00 a0 60 	add  %g2, 0x60, %g2
41002bb8:	80 a0 c0 02 	cmp  %g3, %g2
41002bbc:	22 bf ff b0 	be,a   41002a7c <_CORE_mutex_Surrender+0xd8>
41002bc0:	d2 04 60 18 	ld  [ %l1 + 0x18 ], %o1
41002bc4:	c4 00 a0 04 	ld  [ %g2 + 4 ], %g2
41002bc8:	c4 00 a0 4c 	ld  [ %g2 + 0x4c ], %g2
41002bcc:	10 bf ff ac 	b  41002a7c <_CORE_mutex_Surrender+0xd8>
41002bd0:	d2 00 a0 14 	ld  [ %g2 + 0x14 ], %o1
41002bd4:	82 10 20 01 	mov  1, %g1
41002bd8:	c2 26 20 58 	st  %g1, [ %i0 + 0x58 ]
41002bdc:	81 c7 e0 08 	ret 
41002be0:	91 e8 20 00 	restore  %g0, 0, %o0
41002be4:	c4 00 a3 94 	ld  [ %g2 + 0x394 ], %g2
41002be8:	c6 00 a0 50 	ld  [ %g2 + 0x50 ], %g3
41002bec:	84 00 a0 54 	add  %g2, 0x54, %g2
41002bf0:	80 a0 c0 02 	cmp  %g3, %g2
41002bf4:	22 bf ff a5 	be,a   41002a88 <_CORE_mutex_Surrender+0xe4>
41002bf8:	d2 04 60 18 	ld  [ %l1 + 0x18 ], %o1
41002bfc:	c4 00 a0 04 	ld  [ %g2 + 4 ], %g2
41002c00:	10 bf ff a2 	b  41002a88 <_CORE_mutex_Surrender+0xe4>
41002c04:	d2 00 a0 54 	ld  [ %g2 + 0x54 ], %o1
41002c08:	80 a0 40 09 	cmp  %g1, %o1
41002c0c:	02 bf ff a8 	be  41002aac <_CORE_mutex_Surrender+0x108>
41002c10:	80 a4 20 00 	cmp  %l0, 0
41002c14:	80 a6 a0 00 	cmp  %i2, 0
41002c18:	32 bf ff a5 	bne,a   41002aac <_CORE_mutex_Surrender+0x108>
41002c1c:	80 a4 20 00 	cmp  %l0, 0
41002c20:	10 bf ff c8 	b  41002b40 <_CORE_mutex_Surrender+0x19c>
41002c24:	90 10 00 11 	mov  %l1, %o0
41002c28:	82 00 60 01 	inc  %g1
41002c2c:	c2 24 20 1c 	st  %g1, [ %l0 + 0x1c ]
41002c30:	81 c7 e0 08 	ret 
41002c34:	91 e8 20 00 	restore  %g0, 0, %o0
41002c38:	c2 04 20 1c 	ld  [ %l0 + 0x1c ], %g1
41002c3c:	82 00 60 01 	inc  %g1
41002c40:	c2 24 20 1c 	st  %g1, [ %l0 + 0x1c ]
41002c44:	c2 04 20 14 	ld  [ %l0 + 0x14 ], %g1
41002c48:	d2 06 20 54 	ld  [ %i0 + 0x54 ], %o1
41002c4c:	80 a2 40 01 	cmp  %o1, %g1
41002c50:	1a bf ff 72 	bcc  41002a18 <_CORE_mutex_Surrender+0x74>
41002c54:	90 10 00 10 	mov  %l0, %o0
41002c58:	94 10 20 00 	clr  %o2
41002c5c:	40 00 02 15 	call  410034b0 <_Thread_Change_priority>
41002c60:	b0 10 20 00 	clr  %i0
41002c64:	81 c7 e0 08 	ret 
41002c68:	81 e8 00 00 	restore 
41002c6c:	92 10 20 01 	mov  1, %o1
41002c70:	7f ff f8 0c 	call  41000ca0 <_Internal_error_Occurred>
41002c74:	94 10 20 22 	mov  0x22, %o2
41002c78:	10 bf ff 71 	b  41002a3c <_CORE_mutex_Surrender+0x98>
41002c7c:	c2 06 20 50 	ld  [ %i0 + 0x50 ], %g1

41002c80 <_Heap_Calc_block_size>:
41002c80:	82 02 20 04 	add  %o0, 4, %g1
41002c84:	81 80 20 00 	mov  %g0, %y
41002c88:	01 00 00 00 	nop 
41002c8c:	01 00 00 00 	nop 
41002c90:	01 00 00 00 	nop 
41002c94:	84 70 40 09 	udiv  %g1, %o1, %g2
41002c98:	84 58 80 09 	smul  %g2, %o1, %g2
41002c9c:	84 a0 40 02 	subcc  %g1, %g2, %g2
41002ca0:	02 80 00 05 	be  41002cb4 <_Heap_Calc_block_size+0x34>
41002ca4:	80 a0 40 0a 	cmp  %g1, %o2
41002ca8:	82 02 40 01 	add  %o1, %g1, %g1
41002cac:	82 20 40 02 	sub  %g1, %g2, %g1
41002cb0:	80 a0 40 0a 	cmp  %g1, %o2
41002cb4:	2a 80 00 02 	bcs,a   41002cbc <_Heap_Calc_block_size+0x3c>
41002cb8:	82 10 00 0a 	mov  %o2, %g1
41002cbc:	80 a2 00 01 	cmp  %o0, %g1
41002cc0:	90 60 20 00 	subx  %g0, 0, %o0
41002cc4:	81 c3 e0 08 	retl 
41002cc8:	90 08 40 08 	and  %g1, %o0, %o0

41002ccc <_Heap_Block_allocate>:
41002ccc:	9d e3 bf a0 	save  %sp, -96, %sp
41002cd0:	c2 06 20 10 	ld  [ %i0 + 0x10 ], %g1
41002cd4:	e2 06 60 04 	ld  [ %i1 + 4 ], %l1
41002cd8:	a0 10 00 18 	mov  %i0, %l0
41002cdc:	a2 0c 7f fe 	and  %l1, -2, %l1
41002ce0:	81 80 20 00 	mov  %g0, %y
41002ce4:	01 00 00 00 	nop 
41002ce8:	01 00 00 00 	nop 
41002cec:	01 00 00 00 	nop 
41002cf0:	84 74 40 01 	udiv  %l1, %g1, %g2
41002cf4:	84 58 80 01 	smul  %g2, %g1, %g2
41002cf8:	80 a4 40 02 	cmp  %l1, %g2
41002cfc:	02 80 00 07 	be  41002d18 <_Heap_Block_allocate+0x4c>
41002d00:	a4 24 40 1a 	sub  %l1, %i2, %l2
41002d04:	90 10 20 00 	clr  %o0
41002d08:	92 10 20 01 	mov  1, %o1
41002d0c:	7f ff f7 e5 	call  41000ca0 <_Internal_error_Occurred>
41002d10:	94 10 20 2a 	mov  0x2a, %o2
41002d14:	c2 06 20 10 	ld  [ %i0 + 0x10 ], %g1
41002d18:	81 80 20 00 	mov  %g0, %y
41002d1c:	01 00 00 00 	nop 
41002d20:	01 00 00 00 	nop 
41002d24:	01 00 00 00 	nop 
41002d28:	84 76 80 01 	udiv  %i2, %g1, %g2
41002d2c:	82 58 80 01 	smul  %g2, %g1, %g1
41002d30:	80 a6 80 01 	cmp  %i2, %g1
41002d34:	02 80 00 07 	be  41002d50 <_Heap_Block_allocate+0x84>
41002d38:	80 a6 80 11 	cmp  %i2, %l1
41002d3c:	90 10 20 00 	clr  %o0
41002d40:	92 10 20 01 	mov  1, %o1
41002d44:	7f ff f7 d7 	call  41000ca0 <_Internal_error_Occurred>
41002d48:	94 10 20 2a 	mov  0x2a, %o2
41002d4c:	80 a6 80 11 	cmp  %i2, %l1
41002d50:	28 80 00 07 	bleu,a   41002d6c <_Heap_Block_allocate+0xa0>
41002d54:	c2 06 60 04 	ld  [ %i1 + 4 ], %g1
41002d58:	90 10 20 00 	clr  %o0
41002d5c:	92 10 20 01 	mov  1, %o1
41002d60:	7f ff f7 d0 	call  41000ca0 <_Internal_error_Occurred>
41002d64:	94 10 20 2a 	mov  0x2a, %o2
41002d68:	c2 06 60 04 	ld  [ %i1 + 4 ], %g1
41002d6c:	80 88 60 01 	btst  1, %g1
41002d70:	32 80 00 07 	bne,a   41002d8c <_Heap_Block_allocate+0xc0>
41002d74:	c2 04 20 14 	ld  [ %l0 + 0x14 ], %g1
41002d78:	90 10 20 00 	clr  %o0
41002d7c:	92 10 20 01 	mov  1, %o1
41002d80:	7f ff f7 c8 	call  41000ca0 <_Internal_error_Occurred>
41002d84:	94 10 20 2a 	mov  0x2a, %o2
41002d88:	c2 04 20 14 	ld  [ %l0 + 0x14 ], %g1
41002d8c:	80 a4 80 01 	cmp  %l2, %g1
41002d90:	1a 80 00 0c 	bcc  41002dc0 <_Heap_Block_allocate+0xf4>
41002d94:	82 06 40 11 	add  %i1, %l1, %g1
41002d98:	c4 06 60 0c 	ld  [ %i1 + 0xc ], %g2
41002d9c:	c6 06 60 08 	ld  [ %i1 + 8 ], %g3
41002da0:	b4 10 00 11 	mov  %l1, %i2
41002da4:	c4 20 e0 0c 	st  %g2, [ %g3 + 0xc ]
41002da8:	c6 20 a0 08 	st  %g3, [ %g2 + 8 ]
41002dac:	c4 00 60 04 	ld  [ %g1 + 4 ], %g2
41002db0:	84 10 a0 01 	or  %g2, 1, %g2
41002db4:	c4 20 60 04 	st  %g2, [ %g1 + 4 ]
41002db8:	81 c7 e0 08 	ret 
41002dbc:	91 e8 00 1a 	restore  %g0, %i2, %o0
41002dc0:	82 06 40 1a 	add  %i1, %i2, %g1
41002dc4:	c4 06 60 08 	ld  [ %i1 + 8 ], %g2
41002dc8:	c6 06 60 0c 	ld  [ %i1 + 0xc ], %g3
41002dcc:	c4 20 60 08 	st  %g2, [ %g1 + 8 ]
41002dd0:	c6 20 60 0c 	st  %g3, [ %g1 + 0xc ]
41002dd4:	88 16 a0 01 	or  %i2, 1, %g4
41002dd8:	c8 26 60 04 	st  %g4, [ %i1 + 4 ]
41002ddc:	e4 20 40 12 	st  %l2, [ %g1 + %l2 ]
41002de0:	c2 20 e0 08 	st  %g1, [ %g3 + 8 ]
41002de4:	a4 14 a0 01 	or  %l2, 1, %l2
41002de8:	c2 20 a0 0c 	st  %g1, [ %g2 + 0xc ]
41002dec:	e4 20 60 04 	st  %l2, [ %g1 + 4 ]
41002df0:	81 c7 e0 08 	ret 
41002df4:	91 e8 00 1a 	restore  %g0, %i2, %o0

41002df8 <_Heap_Initialize>:
41002df8:	9d e3 bf a0 	save  %sp, -96, %sp
41002dfc:	80 a6 e0 00 	cmp  %i3, 0
41002e00:	12 80 00 2c 	bne  41002eb0 <_Heap_Initialize+0xb8>
41002e04:	a0 10 00 18 	mov  %i0, %l0
41002e08:	b6 10 20 08 	mov  8, %i3
41002e0c:	a2 06 60 08 	add  %i1, 8, %l1
41002e10:	81 80 20 00 	mov  %g0, %y
41002e14:	01 00 00 00 	nop 
41002e18:	01 00 00 00 	nop 
41002e1c:	01 00 00 00 	nop 
41002e20:	82 74 40 1b 	udiv  %l1, %i3, %g1
41002e24:	82 58 40 1b 	smul  %g1, %i3, %g1
41002e28:	82 a4 40 01 	subcc  %l1, %g1, %g1
41002e2c:	22 80 00 05 	be,a   41002e40 <_Heap_Initialize+0x48>
41002e30:	82 10 20 10 	mov  0x10, %g1
41002e34:	a2 06 c0 11 	add  %i3, %l1, %l1
41002e38:	a2 24 40 01 	sub  %l1, %g1, %l1
41002e3c:	82 10 20 10 	mov  0x10, %g1
41002e40:	c2 24 20 14 	st  %g1, [ %l0 + 0x14 ]
41002e44:	81 80 20 00 	mov  %g0, %y
41002e48:	01 00 00 00 	nop 
41002e4c:	01 00 00 00 	nop 
41002e50:	01 00 00 00 	nop 
41002e54:	84 70 40 1b 	udiv  %g1, %i3, %g2
41002e58:	84 58 80 1b 	smul  %g2, %i3, %g2
41002e5c:	84 a0 40 02 	subcc  %g1, %g2, %g2
41002e60:	02 80 00 05 	be  41002e74 <_Heap_Initialize+0x7c>
41002e64:	a2 04 7f f8 	add  %l1, -8, %l1
41002e68:	82 06 e0 10 	add  %i3, 0x10, %g1
41002e6c:	84 20 40 02 	sub  %g1, %g2, %g2
41002e70:	c4 24 20 14 	st  %g2, [ %l0 + 0x14 ]
41002e74:	82 24 40 19 	sub  %l1, %i1, %g1
41002e78:	82 00 60 08 	add  %g1, 8, %g1
41002e7c:	80 a0 40 1a 	cmp  %g1, %i2
41002e80:	18 80 00 0a 	bgu  41002ea8 <_Heap_Initialize+0xb0>
41002e84:	82 26 80 01 	sub  %i2, %g1, %g1
41002e88:	81 80 20 00 	mov  %g0, %y
41002e8c:	01 00 00 00 	nop 
41002e90:	01 00 00 00 	nop 
41002e94:	01 00 00 00 	nop 
41002e98:	a4 70 40 1b 	udiv  %g1, %i3, %l2
41002e9c:	a4 dc 80 1b 	smulcc  %l2, %i3, %l2
41002ea0:	32 80 00 0a 	bne,a   41002ec8 <_Heap_Initialize+0xd0>
41002ea4:	f6 24 20 10 	st  %i3, [ %l0 + 0x10 ]
41002ea8:	81 c7 e0 08 	ret 
41002eac:	91 e8 20 00 	restore  %g0, 0, %o0
41002eb0:	82 8e e0 07 	andcc  %i3, 7, %g1
41002eb4:	02 bf ff d7 	be  41002e10 <_Heap_Initialize+0x18>
41002eb8:	a2 06 60 08 	add  %i1, 8, %l1
41002ebc:	b6 06 e0 08 	add  %i3, 8, %i3
41002ec0:	10 bf ff d4 	b  41002e10 <_Heap_Initialize+0x18>
41002ec4:	b6 26 c0 01 	sub  %i3, %g1, %i3
41002ec8:	e0 24 60 08 	st  %l0, [ %l1 + 8 ]
41002ecc:	e0 24 60 0c 	st  %l0, [ %l1 + 0xc ]
41002ed0:	82 14 a0 01 	or  %l2, 1, %g1
41002ed4:	b4 06 40 1a 	add  %i1, %i2, %i2
41002ed8:	f6 24 40 00 	st  %i3, [ %l1 ]
41002edc:	c2 24 60 04 	st  %g1, [ %l1 + 4 ]
41002ee0:	f4 24 20 1c 	st  %i2, [ %l0 + 0x1c ]
41002ee4:	f2 24 20 18 	st  %i1, [ %l0 + 0x18 ]
41002ee8:	e2 24 20 08 	st  %l1, [ %l0 + 8 ]
41002eec:	e2 24 20 0c 	st  %l1, [ %l0 + 0xc ]
41002ef0:	e2 24 20 20 	st  %l1, [ %l0 + 0x20 ]
41002ef4:	c2 04 20 10 	ld  [ %l0 + 0x10 ], %g1
41002ef8:	80 88 60 07 	btst  7, %g1
41002efc:	12 80 00 26 	bne  41002f94 <_Heap_Initialize+0x19c>
41002f00:	90 10 20 00 	clr  %o0
41002f04:	c2 04 20 14 	ld  [ %l0 + 0x14 ], %g1
41002f08:	81 80 20 00 	mov  %g0, %y
41002f0c:	01 00 00 00 	nop 
41002f10:	01 00 00 00 	nop 
41002f14:	01 00 00 00 	nop 
41002f18:	84 70 40 1b 	udiv  %g1, %i3, %g2
41002f1c:	84 58 80 1b 	smul  %g2, %i3, %g2
41002f20:	80 a0 40 02 	cmp  %g1, %g2
41002f24:	12 80 00 17 	bne  41002f80 <_Heap_Initialize+0x188>
41002f28:	90 10 20 00 	clr  %o0
41002f2c:	82 04 60 08 	add  %l1, 8, %g1
41002f30:	81 80 20 00 	mov  %g0, %y
41002f34:	01 00 00 00 	nop 
41002f38:	01 00 00 00 	nop 
41002f3c:	01 00 00 00 	nop 
41002f40:	84 70 40 1b 	udiv  %g1, %i3, %g2
41002f44:	84 58 80 1b 	smul  %g2, %i3, %g2
41002f48:	80 a0 40 02 	cmp  %g1, %g2
41002f4c:	12 80 00 08 	bne  41002f6c <_Heap_Initialize+0x174>
41002f50:	90 10 20 00 	clr  %o0
41002f54:	e4 24 40 12 	st  %l2, [ %l1 + %l2 ]
41002f58:	a2 04 40 12 	add  %l1, %l2, %l1
41002f5c:	f6 24 60 04 	st  %i3, [ %l1 + 4 ]
41002f60:	e2 24 20 24 	st  %l1, [ %l0 + 0x24 ]
41002f64:	81 c7 e0 08 	ret 
41002f68:	91 ec bf fc 	restore  %l2, -4, %o0
41002f6c:	92 10 20 01 	mov  1, %o1
41002f70:	7f ff f7 4c 	call  41000ca0 <_Internal_error_Occurred>
41002f74:	94 10 20 2a 	mov  0x2a, %o2
41002f78:	10 bf ff f8 	b  41002f58 <_Heap_Initialize+0x160>
41002f7c:	e4 24 40 12 	st  %l2, [ %l1 + %l2 ]
41002f80:	92 10 20 01 	mov  1, %o1
41002f84:	7f ff f7 47 	call  41000ca0 <_Internal_error_Occurred>
41002f88:	94 10 20 2a 	mov  0x2a, %o2
41002f8c:	10 bf ff e9 	b  41002f30 <_Heap_Initialize+0x138>
41002f90:	82 04 60 08 	add  %l1, 8, %g1
41002f94:	92 10 20 01 	mov  1, %o1
41002f98:	7f ff f7 42 	call  41000ca0 <_Internal_error_Occurred>
41002f9c:	94 10 20 2a 	mov  0x2a, %o2
41002fa0:	10 bf ff da 	b  41002f08 <_Heap_Initialize+0x110>
41002fa4:	c2 04 20 14 	ld  [ %l0 + 0x14 ], %g1

41002fa8 <_Heap_Allocate>:
41002fa8:	9d e3 bf a0 	save  %sp, -96, %sp
41002fac:	90 10 00 19 	mov  %i1, %o0
41002fb0:	d2 06 20 10 	ld  [ %i0 + 0x10 ], %o1
41002fb4:	d4 06 20 14 	ld  [ %i0 + 0x14 ], %o2
41002fb8:	7f ff ff 32 	call  41002c80 <_Heap_Calc_block_size>
41002fbc:	a0 10 00 18 	mov  %i0, %l0
41002fc0:	a2 92 20 00 	orcc  %o0, 0, %l1
41002fc4:	02 80 00 2b 	be  41003070 <_Heap_Allocate+0xc8>
41002fc8:	01 00 00 00 	nop 
41002fcc:	f0 06 20 08 	ld  [ %i0 + 8 ], %i0
41002fd0:	80 a4 00 18 	cmp  %l0, %i0
41002fd4:	32 80 00 0b 	bne,a   41003000 <_Heap_Allocate+0x58>
41002fd8:	c2 06 20 04 	ld  [ %i0 + 4 ], %g1
41002fdc:	81 c7 e0 08 	ret 
41002fe0:	91 e8 20 00 	restore  %g0, 0, %o0
41002fe4:	08 80 00 13 	bleu  41003030 <_Heap_Allocate+0x88>
41002fe8:	92 10 00 18 	mov  %i0, %o1
41002fec:	f0 06 20 08 	ld  [ %i0 + 8 ], %i0
41002ff0:	80 a4 00 18 	cmp  %l0, %i0
41002ff4:	02 80 00 1f 	be  41003070 <_Heap_Allocate+0xc8>
41002ff8:	01 00 00 00 	nop 
41002ffc:	c2 06 20 04 	ld  [ %i0 + 4 ], %g1
41003000:	80 88 60 01 	btst  1, %g1
41003004:	12 bf ff f8 	bne  41002fe4 <_Heap_Allocate+0x3c>
41003008:	80 a4 40 01 	cmp  %l1, %g1
4100300c:	90 10 20 00 	clr  %o0
41003010:	92 10 20 01 	mov  1, %o1
41003014:	7f ff f7 23 	call  41000ca0 <_Internal_error_Occurred>
41003018:	94 10 20 2a 	mov  0x2a, %o2
4100301c:	c2 06 20 04 	ld  [ %i0 + 4 ], %g1
41003020:	80 a4 40 01 	cmp  %l1, %g1
41003024:	38 bf ff f3 	bgu,a   41002ff0 <_Heap_Allocate+0x48>
41003028:	f0 06 20 08 	ld  [ %i0 + 8 ], %i0
4100302c:	92 10 00 18 	mov  %i0, %o1
41003030:	94 10 00 11 	mov  %l1, %o2
41003034:	7f ff ff 26 	call  41002ccc <_Heap_Block_allocate>
41003038:	90 10 00 10 	mov  %l0, %o0
4100303c:	b0 06 20 08 	add  %i0, 8, %i0
41003040:	c2 04 20 10 	ld  [ %l0 + 0x10 ], %g1
41003044:	81 80 20 00 	mov  %g0, %y
41003048:	01 00 00 00 	nop 
4100304c:	01 00 00 00 	nop 
41003050:	01 00 00 00 	nop 
41003054:	84 76 00 01 	udiv  %i0, %g1, %g2
41003058:	82 58 80 01 	smul  %g2, %g1, %g1
4100305c:	80 a6 00 01 	cmp  %i0, %g1
41003060:	12 80 00 06 	bne  41003078 <_Heap_Allocate+0xd0>
41003064:	90 10 20 00 	clr  %o0
41003068:	81 c7 e0 08 	ret 
4100306c:	81 e8 00 00 	restore 
41003070:	81 c7 e0 08 	ret 
41003074:	91 e8 20 00 	restore  %g0, 0, %o0
41003078:	92 10 20 01 	mov  1, %o1
4100307c:	7f ff f7 09 	call  41000ca0 <_Internal_error_Occurred>
41003080:	94 10 20 2a 	mov  0x2a, %o2
41003084:	81 c7 e0 08 	ret 
41003088:	81 e8 00 00 	restore 

4100308c <_Heap_Free>:
4100308c:	9d e3 bf a0 	save  %sp, -96, %sp
41003090:	c4 06 20 24 	ld  [ %i0 + 0x24 ], %g2
41003094:	80 a0 80 19 	cmp  %g2, %i1
41003098:	c6 06 20 20 	ld  [ %i0 + 0x20 ], %g3
4100309c:	88 60 3f ff 	subx  %g0, -1, %g4
410030a0:	80 a6 40 03 	cmp  %i1, %g3
410030a4:	82 60 3f ff 	subx  %g0, -1, %g1
410030a8:	80 89 00 01 	btst  %g4, %g1
410030ac:	02 80 00 44 	be  410031bc <_Heap_Free+0x130>
410030b0:	80 a6 60 00 	cmp  %i1, 0
410030b4:	81 80 20 00 	mov  %g0, %y
410030b8:	c8 06 20 10 	ld  [ %i0 + 0x10 ], %g4
410030bc:	01 00 00 00 	nop 
410030c0:	01 00 00 00 	nop 
410030c4:	88 76 40 04 	udiv  %i1, %g4, %g4
410030c8:	c2 06 20 10 	ld  [ %i0 + 0x10 ], %g1
410030cc:	82 59 00 01 	smul  %g4, %g1, %g1
410030d0:	82 00 7f f8 	add  %g1, -8, %g1
410030d4:	80 a0 80 01 	cmp  %g2, %g1
410030d8:	9a 60 3f ff 	subx  %g0, -1, %o5
410030dc:	80 a0 40 03 	cmp  %g1, %g3
410030e0:	88 60 3f ff 	subx  %g0, -1, %g4
410030e4:	80 8b 40 04 	btst  %o5, %g4
410030e8:	02 80 00 2f 	be  410031a4 <_Heap_Free+0x118>
410030ec:	90 10 20 00 	clr  %o0
410030f0:	d8 00 60 04 	ld  [ %g1 + 4 ], %o4
410030f4:	9a 0b 3f fe 	and  %o4, -2, %o5
410030f8:	88 00 40 0d 	add  %g1, %o5, %g4
410030fc:	80 a0 80 04 	cmp  %g2, %g4
41003100:	94 60 3f ff 	subx  %g0, -1, %o2
41003104:	80 a1 00 03 	cmp  %g4, %g3
41003108:	96 60 3f ff 	subx  %g0, -1, %o3
4100310c:	80 8a 80 0b 	btst  %o2, %o3
41003110:	02 80 00 26 	be  410031a8 <_Heap_Free+0x11c>
41003114:	92 10 20 01 	mov  1, %o1
41003118:	e2 01 20 04 	ld  [ %g4 + 4 ], %l1
4100311c:	80 8c 60 01 	btst  1, %l1
41003120:	02 80 00 22 	be  410031a8 <_Heap_Free+0x11c>
41003124:	a2 0c 7f fe 	and  %l1, -2, %l1
41003128:	80 a0 80 04 	cmp  %g2, %g4
4100312c:	18 80 00 37 	bgu  41003208 <_Heap_Free+0x17c>
41003130:	96 10 20 00 	clr  %o3
41003134:	80 8b 20 01 	btst  1, %o4
41003138:	12 80 00 26 	bne  410031d0 <_Heap_Free+0x144>
4100313c:	80 a2 e0 00 	cmp  %o3, 0
41003140:	d8 00 40 00 	ld  [ %g1 ], %o4
41003144:	a0 20 40 0c 	sub  %g1, %o4, %l0
41003148:	80 a0 80 10 	cmp  %g2, %l0
4100314c:	94 60 3f ff 	subx  %g0, -1, %o2
41003150:	80 a4 00 03 	cmp  %l0, %g3
41003154:	84 60 3f ff 	subx  %g0, -1, %g2
41003158:	80 8a 80 02 	btst  %o2, %g2
4100315c:	22 80 00 12 	be,a   410031a4 <_Heap_Free+0x118>
41003160:	90 10 20 00 	clr  %o0
41003164:	c4 04 20 04 	ld  [ %l0 + 4 ], %g2
41003168:	80 88 a0 01 	btst  1, %g2
4100316c:	02 80 00 0d 	be  410031a0 <_Heap_Free+0x114>
41003170:	80 a2 e0 00 	cmp  %o3, 0
41003174:	12 80 00 3f 	bne  41003270 <_Heap_Free+0x1e4>
41003178:	b0 10 20 01 	mov  1, %i0
4100317c:	98 03 40 0c 	add  %o5, %o4, %o4
41003180:	84 13 20 01 	or  %o4, 1, %g2
41003184:	c4 24 20 04 	st  %g2, [ %l0 + 4 ]
41003188:	d8 20 40 0d 	st  %o4, [ %g1 + %o5 ]
4100318c:	c2 01 20 04 	ld  [ %g4 + 4 ], %g1
41003190:	82 08 7f fe 	and  %g1, -2, %g1
41003194:	c2 21 20 04 	st  %g1, [ %g4 + 4 ]
41003198:	81 c7 e0 08 	ret 
4100319c:	81 e8 00 00 	restore 
410031a0:	90 10 20 00 	clr  %o0
410031a4:	92 10 20 01 	mov  1, %o1
410031a8:	94 10 20 2a 	mov  0x2a, %o2
410031ac:	7f ff f6 bd 	call  41000ca0 <_Internal_error_Occurred>
410031b0:	b0 10 20 00 	clr  %i0
410031b4:	81 c7 e0 08 	ret 
410031b8:	81 e8 00 00 	restore 
410031bc:	02 80 00 1b 	be  41003228 <_Heap_Free+0x19c>
410031c0:	b0 10 20 00 	clr  %i0
410031c4:	81 c7 e0 08 	ret 
410031c8:	81 e8 00 00 	restore 
410031cc:	80 a2 e0 00 	cmp  %o3, 0
410031d0:	12 80 00 1c 	bne  41003240 <_Heap_Free+0x1b4>
410031d4:	86 13 60 01 	or  %o5, 1, %g3
410031d8:	c4 06 20 08 	ld  [ %i0 + 8 ], %g2
410031dc:	f0 20 60 0c 	st  %i0, [ %g1 + 0xc ]
410031e0:	c4 20 60 08 	st  %g2, [ %g1 + 8 ]
410031e4:	c6 20 60 04 	st  %g3, [ %g1 + 4 ]
410031e8:	c2 26 20 08 	st  %g1, [ %i0 + 8 ]
410031ec:	da 20 40 0d 	st  %o5, [ %g1 + %o5 ]
410031f0:	c2 20 a0 0c 	st  %g1, [ %g2 + 0xc ]
410031f4:	c2 01 20 04 	ld  [ %g4 + 4 ], %g1
410031f8:	82 08 7f fe 	and  %g1, -2, %g1
410031fc:	c2 21 20 04 	st  %g1, [ %g4 + 4 ]
41003200:	81 c7 e0 08 	ret 
41003204:	91 e8 20 01 	restore  %g0, 1, %o0
41003208:	96 01 00 11 	add  %g4, %l1, %o3
4100320c:	80 8b 20 01 	btst  1, %o4
41003210:	d6 02 e0 04 	ld  [ %o3 + 4 ], %o3
41003214:	96 1a e0 01 	xor  %o3, 1, %o3
41003218:	12 bf ff ed 	bne  410031cc <_Heap_Free+0x140>
4100321c:	96 0a e0 01 	and  %o3, 1, %o3
41003220:	10 bf ff c9 	b  41003144 <_Heap_Free+0xb8>
41003224:	d8 00 40 00 	ld  [ %g1 ], %o4
41003228:	90 10 20 00 	clr  %o0
4100322c:	92 10 20 01 	mov  1, %o1
41003230:	7f ff f6 9c 	call  41000ca0 <_Internal_error_Occurred>
41003234:	94 10 20 2a 	mov  0x2a, %o2
41003238:	81 c7 e0 08 	ret 
4100323c:	81 e8 00 00 	restore 
41003240:	c6 01 20 0c 	ld  [ %g4 + 0xc ], %g3
41003244:	c4 01 20 08 	ld  [ %g4 + 8 ], %g2
41003248:	c6 20 60 0c 	st  %g3, [ %g1 + 0xc ]
4100324c:	c4 20 60 08 	st  %g2, [ %g1 + 8 ]
41003250:	a2 04 40 0d 	add  %l1, %o5, %l1
41003254:	c2 20 e0 08 	st  %g1, [ %g3 + 8 ]
41003258:	e2 20 40 11 	st  %l1, [ %g1 + %l1 ]
4100325c:	c2 20 a0 0c 	st  %g1, [ %g2 + 0xc ]
41003260:	a2 14 60 01 	or  %l1, 1, %l1
41003264:	e2 20 60 04 	st  %l1, [ %g1 + 4 ]
41003268:	81 c7 e0 08 	ret 
4100326c:	91 e8 20 01 	restore  %g0, 1, %o0
41003270:	c2 01 20 0c 	ld  [ %g4 + 0xc ], %g1
41003274:	c4 01 20 08 	ld  [ %g4 + 8 ], %g2
41003278:	a2 03 40 11 	add  %o5, %l1, %l1
4100327c:	c2 20 a0 0c 	st  %g1, [ %g2 + 0xc ]
41003280:	a2 04 40 0c 	add  %l1, %o4, %l1
41003284:	c4 20 60 08 	st  %g2, [ %g1 + 8 ]
41003288:	82 14 60 01 	or  %l1, 1, %g1
4100328c:	c2 24 20 04 	st  %g1, [ %l0 + 4 ]
41003290:	82 04 00 11 	add  %l0, %l1, %g1
41003294:	c2 00 60 04 	ld  [ %g1 + 4 ], %g1
41003298:	80 88 60 01 	btst  1, %g1
4100329c:	22 80 00 07 	be,a   410032b8 <_Heap_Free+0x22c>
410032a0:	e2 24 00 11 	st  %l1, [ %l0 + %l1 ]
410032a4:	90 10 20 00 	clr  %o0
410032a8:	92 10 20 01 	mov  1, %o1
410032ac:	7f ff f6 7d 	call  41000ca0 <_Internal_error_Occurred>
410032b0:	94 10 20 2a 	mov  0x2a, %o2
410032b4:	e2 24 00 11 	st  %l1, [ %l0 + %l1 ]
410032b8:	81 c7 e0 08 	ret 
410032bc:	91 e8 20 01 	restore  %g0, 1, %o0

410032c0 <_Objects_Allocate>:
410032c0:	c2 02 20 18 	ld  [ %o0 + 0x18 ], %g1
410032c4:	80 a0 60 00 	cmp  %g1, 0
410032c8:	32 80 00 04 	bne,a   410032d8 <_Objects_Allocate+0x18>
410032cc:	90 02 20 24 	add  %o0, 0x24, %o0
410032d0:	81 c3 e0 08 	retl 
410032d4:	90 10 20 00 	clr  %o0
410032d8:	82 13 c0 00 	mov  %o7, %g1
410032dc:	40 00 03 20 	call  41003f5c <_Chain_Get>
410032e0:	9e 10 40 00 	mov  %g1, %o7
410032e4:	01 00 00 00 	nop 

410032e8 <_Objects_Extend_information>:
410032e8:	9d e3 bf 90 	save  %sp, -112, %sp
410032ec:	c2 06 20 08 	ld  [ %i0 + 8 ], %g1
410032f0:	23 00 00 3f 	sethi  %hi(0xfc00), %l1
410032f4:	a2 14 63 ff 	or  %l1, 0x3ff, %l1	! ffff <PROM_START+0xffff>
410032f8:	a2 08 40 11 	and  %g1, %l1, %l1
410032fc:	c2 16 20 10 	lduh  [ %i0 + 0x10 ], %g1
41003300:	80 a0 40 11 	cmp  %g1, %l1
41003304:	28 80 00 35 	bleu,a   410033d8 <_Objects_Extend_information+0xf0>
41003308:	e4 06 20 14 	ld  [ %i0 + 0x14 ], %l2
4100330c:	c2 06 20 18 	ld  [ %i0 + 0x18 ], %g1
41003310:	d0 16 20 40 	lduh  [ %i0 + 0x40 ], %o0
41003314:	90 02 00 01 	add  %o0, %g1, %o0
41003318:	c2 06 20 14 	ld  [ %i0 + 0x14 ], %g1
4100331c:	e0 06 20 38 	ld  [ %i0 + 0x38 ], %l0
41003320:	7f ff fb 54 	call  41002070 <_Workspace_Allocate_or_fatal_error>
41003324:	90 5a 00 01 	smul  %o0, %g1, %o0
41003328:	c6 06 20 18 	ld  [ %i0 + 0x18 ], %g3
4100332c:	c4 06 20 14 	ld  [ %i0 + 0x14 ], %g2
41003330:	94 10 00 02 	mov  %g2, %o2
41003334:	84 58 c0 02 	smul  %g3, %g2, %g2
41003338:	d0 24 00 00 	st  %o0, [ %l0 ]
4100333c:	c2 06 20 38 	ld  [ %i0 + 0x38 ], %g1
41003340:	e0 00 40 00 	ld  [ %g1 ], %l0
41003344:	a0 04 00 02 	add  %l0, %g2, %l0
41003348:	c4 06 20 20 	ld  [ %i0 + 0x20 ], %g2
4100334c:	a4 07 bf f4 	add  %fp, -12, %l2
41003350:	e0 20 80 00 	st  %l0, [ %g2 ]
41003354:	96 10 00 03 	mov  %g3, %o3
41003358:	d2 00 40 00 	ld  [ %g1 ], %o1
4100335c:	a6 06 20 24 	add  %i0, 0x24, %l3
41003360:	40 00 02 eb 	call  41003f0c <_Chain_Initialize>
41003364:	90 10 00 12 	mov  %l2, %o0
41003368:	30 80 00 0e 	b,a   410033a0 <_Objects_Extend_information+0xb8>
4100336c:	c2 06 00 00 	ld  [ %i0 ], %g1
41003370:	85 28 a0 1b 	sll  %g2, 0x1b, %g2
41003374:	83 28 60 18 	sll  %g1, 0x18, %g1
41003378:	82 10 80 01 	or  %g2, %g1, %g1
4100337c:	82 10 40 11 	or  %g1, %l1, %g1
41003380:	c2 22 20 08 	st  %g1, [ %o0 + 8 ]
41003384:	c2 16 20 40 	lduh  [ %i0 + 0x40 ], %g1
41003388:	e0 22 20 0c 	st  %l0, [ %o0 + 0xc ]
4100338c:	92 10 00 08 	mov  %o0, %o1
41003390:	a2 04 60 01 	inc  %l1
41003394:	a0 04 00 01 	add  %l0, %g1, %l0
41003398:	7f ff f6 27 	call  41000c34 <_Chain_Append>
4100339c:	90 10 00 13 	mov  %l3, %o0
410033a0:	40 00 02 ef 	call  41003f5c <_Chain_Get>
410033a4:	90 10 00 12 	mov  %l2, %o0
410033a8:	80 a2 20 00 	cmp  %o0, 0
410033ac:	32 bf ff f0 	bne,a   4100336c <_Objects_Extend_information+0x84>
410033b0:	c4 16 20 04 	lduh  [ %i0 + 4 ], %g2
410033b4:	c4 06 20 34 	ld  [ %i0 + 0x34 ], %g2
410033b8:	c2 16 20 30 	lduh  [ %i0 + 0x30 ], %g1
410033bc:	c6 06 20 14 	ld  [ %i0 + 0x14 ], %g3
410033c0:	c6 20 80 00 	st  %g3, [ %g2 ]
410033c4:	c4 06 20 14 	ld  [ %i0 + 0x14 ], %g2
410033c8:	82 00 80 01 	add  %g2, %g1, %g1
410033cc:	c2 36 20 30 	sth  %g1, [ %i0 + 0x30 ]
410033d0:	81 c7 e0 08 	ret 
410033d4:	81 e8 00 00 	restore 
410033d8:	a6 04 60 03 	add  %l1, 3, %l3
410033dc:	a4 00 40 12 	add  %g1, %l2, %l2
410033e0:	90 04 c0 12 	add  %l3, %l2, %o0
410033e4:	7f ff fb 23 	call  41002070 <_Workspace_Allocate_or_fatal_error>
410033e8:	91 2a 20 02 	sll  %o0, 2, %o0
410033ec:	80 a4 60 00 	cmp  %l1, 0
410033f0:	a0 10 00 08 	mov  %o0, %l0
410033f4:	ac 02 20 04 	add  %o0, 4, %l6
410033f8:	aa 02 20 08 	add  %o0, 8, %l5
410033fc:	02 80 00 09 	be  41003420 <_Objects_Extend_information+0x138>
41003400:	a8 02 20 0c 	add  %o0, 0xc, %l4
41003404:	84 10 00 08 	mov  %o0, %g2
41003408:	82 10 20 00 	clr  %g1
4100340c:	c0 20 a0 0c 	clr  [ %g2 + 0xc ]
41003410:	82 00 60 01 	inc  %g1
41003414:	80 a0 40 11 	cmp  %g1, %l1
41003418:	0a bf ff fd 	bcs  4100340c <_Objects_Extend_information+0x124>
4100341c:	84 00 a0 04 	add  %g2, 4, %g2
41003420:	c0 24 20 04 	clr  [ %l0 + 4 ]
41003424:	c0 24 00 00 	clr  [ %l0 ]
41003428:	c0 24 20 08 	clr  [ %l0 + 8 ]
4100342c:	c4 06 20 14 	ld  [ %i0 + 0x14 ], %g2
41003430:	84 04 40 02 	add  %l1, %g2, %g2
41003434:	80 a4 40 02 	cmp  %l1, %g2
41003438:	1a 80 00 0a 	bcc  41003460 <_Objects_Extend_information+0x178>
4100343c:	01 00 00 00 	nop 
41003440:	a7 2c e0 02 	sll  %l3, 2, %l3
41003444:	82 10 00 11 	mov  %l1, %g1
41003448:	a6 04 00 13 	add  %l0, %l3, %l3
4100344c:	c0 24 c0 00 	clr  [ %l3 ]
41003450:	82 00 60 01 	inc  %g1
41003454:	80 a0 40 02 	cmp  %g1, %g2
41003458:	0a bf ff fd 	bcs  4100344c <_Objects_Extend_information+0x164>
4100345c:	a6 04 e0 04 	add  %l3, 4, %l3
41003460:	40 00 0b 67 	call  410061fc <xky_sparc_disable_interrupts>
41003464:	01 00 00 00 	nop 
41003468:	85 2c a0 10 	sll  %l2, 0x10, %g2
4100346c:	c6 16 20 04 	lduh  [ %i0 + 4 ], %g3
41003470:	85 30 a0 10 	srl  %g2, 0x10, %g2
41003474:	87 28 e0 1b 	sll  %g3, 0x1b, %g3
41003478:	c2 06 00 00 	ld  [ %i0 ], %g1
4100347c:	e0 26 20 38 	st  %l0, [ %i0 + 0x38 ]
41003480:	ec 26 20 34 	st  %l6, [ %i0 + 0x34 ]
41003484:	ea 26 20 20 	st  %l5, [ %i0 + 0x20 ]
41003488:	e8 26 20 1c 	st  %l4, [ %i0 + 0x1c ]
4100348c:	e4 36 20 10 	sth  %l2, [ %i0 + 0x10 ]
41003490:	83 28 60 18 	sll  %g1, 0x18, %g1
41003494:	82 10 c0 01 	or  %g3, %g1, %g1
41003498:	82 10 40 02 	or  %g1, %g2, %g1
4100349c:	c2 26 20 0c 	st  %g1, [ %i0 + 0xc ]
410034a0:	40 00 0b 5b 	call  4100620c <xky_sparc_enable_interrupts>
410034a4:	01 00 00 00 	nop 
410034a8:	10 bf ff 9a 	b  41003310 <_Objects_Extend_information+0x28>
410034ac:	c2 06 20 18 	ld  [ %i0 + 0x18 ], %g1

410034b0 <_Thread_Change_priority>:
410034b0:	9d e3 bf a0 	save  %sp, -96, %sp
410034b4:	40 00 02 63 	call  41003e40 <_Thread_Set_transient>
410034b8:	90 10 00 18 	mov  %i0, %o0
410034bc:	c2 06 20 14 	ld  [ %i0 + 0x14 ], %g1
410034c0:	80 a0 40 19 	cmp  %g1, %i1
410034c4:	02 80 00 04 	be  410034d4 <_Thread_Change_priority+0x24>
410034c8:	92 10 00 19 	mov  %i1, %o1
410034cc:	7f ff f8 71 	call  41001690 <_Thread_Set_priority>
410034d0:	90 10 00 18 	mov  %i0, %o0
410034d4:	40 00 0b 4a 	call  410061fc <xky_sparc_disable_interrupts>
410034d8:	01 00 00 00 	nop 
410034dc:	a2 10 00 08 	mov  %o0, %l1
410034e0:	e0 06 20 10 	ld  [ %i0 + 0x10 ], %l0
410034e4:	80 a4 20 04 	cmp  %l0, 4
410034e8:	02 80 00 0c 	be  41003518 <_Thread_Change_priority+0x68>
410034ec:	82 0c 3f fb 	and  %l0, -5, %g1
410034f0:	c2 26 20 10 	st  %g1, [ %i0 + 0x10 ]
410034f4:	40 00 0b 46 	call  4100620c <xky_sparc_enable_interrupts>
410034f8:	01 00 00 00 	nop 
410034fc:	03 00 00 ef 	sethi  %hi(0x3bc00), %g1
41003500:	82 10 62 e0 	or  %g1, 0x2e0, %g1	! 3bee0 <PROM_START+0x3bee0>
41003504:	80 8c 00 01 	btst  %l0, %g1
41003508:	12 80 00 58 	bne  41003668 <_Thread_Change_priority+0x1b8>
4100350c:	b2 10 00 18 	mov  %i0, %i1
41003510:	81 c7 e0 08 	ret 
41003514:	81 e8 00 00 	restore 
41003518:	c4 16 20 be 	lduh  [ %i0 + 0xbe ], %g2
4100351c:	c2 06 20 b8 	ld  [ %i0 + 0xb8 ], %g1
41003520:	c6 10 40 00 	lduh  [ %g1 ], %g3
41003524:	84 10 c0 02 	or  %g3, %g2, %g2
41003528:	c4 30 40 00 	sth  %g2, [ %g1 ]
4100352c:	21 10 40 29 	sethi  %hi(0x4100a400), %l0
41003530:	c2 16 20 bc 	lduh  [ %i0 + 0xbc ], %g1
41003534:	c4 14 23 e8 	lduh  [ %l0 + 0x3e8 ], %g2
41003538:	c0 26 20 10 	clr  [ %i0 + 0x10 ]
4100353c:	82 10 80 01 	or  %g2, %g1, %g1
41003540:	c2 34 23 e8 	sth  %g1, [ %l0 + 0x3e8 ]
41003544:	80 a6 a0 00 	cmp  %i2, 0
41003548:	02 80 00 41 	be  4100364c <_Thread_Change_priority+0x19c>
4100354c:	c2 06 20 b4 	ld  [ %i0 + 0xb4 ], %g1
41003550:	c4 00 40 00 	ld  [ %g1 ], %g2
41003554:	c2 26 20 04 	st  %g1, [ %i0 + 4 ]
41003558:	f0 20 40 00 	st  %i0, [ %g1 ]
4100355c:	f0 20 a0 04 	st  %i0, [ %g2 + 4 ]
41003560:	c4 26 00 00 	st  %g2, [ %i0 ]
41003564:	40 00 0b 2a 	call  4100620c <xky_sparc_enable_interrupts>
41003568:	90 10 00 11 	mov  %l1, %o0
4100356c:	40 00 0b 24 	call  410061fc <xky_sparc_disable_interrupts>
41003570:	01 00 00 00 	nop 
41003574:	05 10 40 2a 	sethi  %hi(0x4100a800), %g2
41003578:	c2 14 23 e8 	lduh  [ %l0 + 0x3e8 ], %g1
4100357c:	da 00 a0 d8 	ld  [ %g2 + 0xd8 ], %o5
41003580:	83 28 60 10 	sll  %g1, 0x10, %g1
41003584:	85 30 60 10 	srl  %g1, 0x10, %g2
41003588:	80 a0 a0 ff 	cmp  %g2, 0xff
4100358c:	18 80 00 2c 	bgu  4100363c <_Thread_Change_priority+0x18c>
41003590:	83 30 60 18 	srl  %g1, 0x18, %g1
41003594:	07 10 40 18 	sethi  %hi(0x41006000), %g3
41003598:	86 10 e3 e0 	or  %g3, 0x3e0, %g3	! 410063e0 <__log2table>
4100359c:	c4 08 c0 02 	ldub  [ %g3 + %g2 ], %g2
410035a0:	84 00 a0 08 	add  %g2, 8, %g2
410035a4:	09 10 40 29 	sethi  %hi(0x4100a400), %g4
410035a8:	88 11 23 f0 	or  %g4, 0x3f0, %g4	! 4100a7f0 <_Priority_Bit_map>
410035ac:	85 28 a0 10 	sll  %g2, 0x10, %g2
410035b0:	83 30 a0 0f 	srl  %g2, 0xf, %g1
410035b4:	c2 11 00 01 	lduh  [ %g4 + %g1 ], %g1
410035b8:	83 28 60 10 	sll  %g1, 0x10, %g1
410035bc:	89 30 60 10 	srl  %g1, 0x10, %g4
410035c0:	80 a1 20 ff 	cmp  %g4, 0xff
410035c4:	18 80 00 1c 	bgu  41003634 <_Thread_Change_priority+0x184>
410035c8:	83 30 60 18 	srl  %g1, 0x18, %g1
410035cc:	c2 08 c0 04 	ldub  [ %g3 + %g4 ], %g1
410035d0:	82 00 60 08 	add  %g1, 8, %g1
410035d4:	85 30 a0 0c 	srl  %g2, 0xc, %g2
410035d8:	83 28 60 10 	sll  %g1, 0x10, %g1
410035dc:	83 30 60 10 	srl  %g1, 0x10, %g1
410035e0:	82 00 40 02 	add  %g1, %g2, %g1
410035e4:	84 00 40 01 	add  %g1, %g1, %g2
410035e8:	82 00 80 01 	add  %g2, %g1, %g1
410035ec:	05 10 40 19 	sethi  %hi(0x41006400), %g2
410035f0:	83 28 60 02 	sll  %g1, 2, %g1
410035f4:	c2 03 40 01 	ld  [ %o5 + %g1 ], %g1
410035f8:	c2 20 a3 98 	st  %g1, [ %g2 + 0x398 ]
410035fc:	05 10 40 19 	sethi  %hi(0x41006400), %g2
41003600:	c4 00 a3 94 	ld  [ %g2 + 0x394 ], %g2	! 41006794 <_Thread_Executing>
41003604:	80 a0 40 02 	cmp  %g1, %g2
41003608:	02 80 00 09 	be  4100362c <_Thread_Change_priority+0x17c>
4100360c:	01 00 00 00 	nop 
41003610:	c2 00 a0 a0 	ld  [ %g2 + 0xa0 ], %g1
41003614:	80 a0 60 00 	cmp  %g1, 0
41003618:	02 80 00 05 	be  4100362c <_Thread_Change_priority+0x17c>
4100361c:	01 00 00 00 	nop 
41003620:	84 10 20 01 	mov  1, %g2	! 1 <PROM_START+0x1>
41003624:	03 10 40 2a 	sethi  %hi(0x4100a800), %g1
41003628:	c4 20 61 c0 	st  %g2, [ %g1 + 0x1c0 ]	! 4100a9c0 <_Context_Switch_necessary>
4100362c:	40 00 0a f8 	call  4100620c <xky_sparc_enable_interrupts>
41003630:	91 e8 00 11 	restore  %g0, %l1, %o0
41003634:	10 bf ff e8 	b  410035d4 <_Thread_Change_priority+0x124>
41003638:	c2 08 c0 01 	ldub  [ %g3 + %g1 ], %g1
4100363c:	07 10 40 18 	sethi  %hi(0x41006000), %g3
41003640:	86 10 e3 e0 	or  %g3, 0x3e0, %g3	! 410063e0 <__log2table>
41003644:	10 bf ff d8 	b  410035a4 <_Thread_Change_priority+0xf4>
41003648:	c4 08 c0 01 	ldub  [ %g3 + %g1 ], %g2
4100364c:	84 00 60 04 	add  %g1, 4, %g2
41003650:	c4 26 00 00 	st  %g2, [ %i0 ]
41003654:	c4 00 60 08 	ld  [ %g1 + 8 ], %g2
41003658:	f0 20 60 08 	st  %i0, [ %g1 + 8 ]
4100365c:	c4 26 20 04 	st  %g2, [ %i0 + 4 ]
41003660:	10 bf ff c1 	b  41003564 <_Thread_Change_priority+0xb4>
41003664:	f0 20 80 00 	st  %i0, [ %g2 ]
41003668:	f0 06 20 4c 	ld  [ %i0 + 0x4c ], %i0
4100366c:	40 00 01 80 	call  41003c6c <_Thread_queue_Requeue>
41003670:	81 e8 00 00 	restore 
41003674:	01 00 00 00 	nop 

41003678 <_Thread_Clear_state>:
41003678:	9d e3 bf a0 	save  %sp, -96, %sp
4100367c:	40 00 0a e0 	call  410061fc <xky_sparc_disable_interrupts>
41003680:	a0 10 00 18 	mov  %i0, %l0
41003684:	b0 10 00 08 	mov  %o0, %i0
41003688:	c2 04 20 10 	ld  [ %l0 + 0x10 ], %g1
4100368c:	80 8e 40 01 	btst  %i1, %g1
41003690:	02 80 00 06 	be  410036a8 <_Thread_Clear_state+0x30>
41003694:	01 00 00 00 	nop 
41003698:	b2 28 40 19 	andn  %g1, %i1, %i1
4100369c:	80 a6 60 00 	cmp  %i1, 0
410036a0:	02 80 00 04 	be  410036b0 <_Thread_Clear_state+0x38>
410036a4:	f2 24 20 10 	st  %i1, [ %l0 + 0x10 ]
410036a8:	40 00 0a d9 	call  4100620c <xky_sparc_enable_interrupts>
410036ac:	81 e8 00 00 	restore 
410036b0:	c2 04 20 b4 	ld  [ %l0 + 0xb4 ], %g1
410036b4:	84 00 60 04 	add  %g1, 4, %g2
410036b8:	c4 24 00 00 	st  %g2, [ %l0 ]
410036bc:	c6 14 20 be 	lduh  [ %l0 + 0xbe ], %g3
410036c0:	c4 00 60 08 	ld  [ %g1 + 8 ], %g2
410036c4:	e0 20 60 08 	st  %l0, [ %g1 + 8 ]
410036c8:	c2 04 20 b8 	ld  [ %l0 + 0xb8 ], %g1
410036cc:	c8 10 40 00 	lduh  [ %g1 ], %g4
410036d0:	86 11 00 03 	or  %g4, %g3, %g3
410036d4:	c6 30 40 00 	sth  %g3, [ %g1 ]
410036d8:	c4 24 20 04 	st  %g2, [ %l0 + 4 ]
410036dc:	e0 20 80 00 	st  %l0, [ %g2 ]
410036e0:	03 10 40 29 	sethi  %hi(0x4100a400), %g1
410036e4:	c4 14 20 bc 	lduh  [ %l0 + 0xbc ], %g2
410036e8:	c6 10 63 e8 	lduh  [ %g1 + 0x3e8 ], %g3
410036ec:	84 10 c0 02 	or  %g3, %g2, %g2
410036f0:	c4 30 63 e8 	sth  %g2, [ %g1 + 0x3e8 ]
410036f4:	40 00 0a c6 	call  4100620c <xky_sparc_enable_interrupts>
410036f8:	01 00 00 00 	nop 
410036fc:	40 00 0a c0 	call  410061fc <xky_sparc_disable_interrupts>
41003700:	01 00 00 00 	nop 
41003704:	03 10 40 19 	sethi  %hi(0x41006400), %g1
41003708:	c4 04 20 14 	ld  [ %l0 + 0x14 ], %g2
4100370c:	c6 00 63 98 	ld  [ %g1 + 0x398 ], %g3
41003710:	c6 00 e0 14 	ld  [ %g3 + 0x14 ], %g3
41003714:	80 a0 80 03 	cmp  %g2, %g3
41003718:	1a bf ff e4 	bcc  410036a8 <_Thread_Clear_state+0x30>
4100371c:	01 00 00 00 	nop 
41003720:	e0 20 63 98 	st  %l0, [ %g1 + 0x398 ]
41003724:	03 10 40 19 	sethi  %hi(0x41006400), %g1
41003728:	c2 00 63 94 	ld  [ %g1 + 0x394 ], %g1	! 41006794 <_Thread_Executing>
4100372c:	c2 00 60 a0 	ld  [ %g1 + 0xa0 ], %g1
41003730:	80 a0 60 00 	cmp  %g1, 0
41003734:	32 80 00 05 	bne,a   41003748 <_Thread_Clear_state+0xd0>
41003738:	84 10 20 01 	mov  1, %g2
4100373c:	80 a0 a0 00 	cmp  %g2, 0
41003740:	12 bf ff da 	bne  410036a8 <_Thread_Clear_state+0x30>
41003744:	84 10 20 01 	mov  1, %g2
41003748:	03 10 40 2a 	sethi  %hi(0x4100a800), %g1
4100374c:	c4 20 61 c0 	st  %g2, [ %g1 + 0x1c0 ]	! 4100a9c0 <_Context_Switch_necessary>
41003750:	40 00 0a af 	call  4100620c <xky_sparc_enable_interrupts>
41003754:	81 e8 00 00 	restore 
41003758:	01 00 00 00 	nop 

4100375c <_Thread_Load_environment>:
4100375c:	9d e3 bf a0 	save  %sp, -96, %sp
41003760:	ba 10 20 00 	clr  %i5
41003764:	d0 06 20 f4 	ld  [ %i0 + 0xf4 ], %o0
41003768:	80 a2 20 00 	cmp  %o0, 0
4100376c:	02 80 00 08 	be  4100378c <_Thread_Load_environment+0x30>
41003770:	a0 10 00 18 	mov  %i0, %l0
41003774:	d0 26 21 88 	st  %o0, [ %i0 + 0x188 ]
41003778:	13 10 40 2a 	sethi  %hi(0x4100a800), %o1
4100377c:	94 10 20 88 	mov  0x88, %o2
41003780:	92 12 62 40 	or  %o1, 0x240, %o1
41003784:	40 00 06 7e 	call  4100517c <memcpy>
41003788:	ba 10 20 01 	mov  1, %i5
4100378c:	82 04 20 54 	add  %l0, 0x54, %g1
41003790:	c2 24 20 50 	st  %g1, [ %l0 + 0x50 ]
41003794:	82 04 20 50 	add  %l0, 0x50, %g1
41003798:	c2 24 20 58 	st  %g1, [ %l0 + 0x58 ]
4100379c:	82 04 20 60 	add  %l0, 0x60, %g1
410037a0:	c2 24 20 5c 	st  %g1, [ %l0 + 0x5c ]
410037a4:	82 04 20 5c 	add  %l0, 0x5c, %g1
410037a8:	c2 24 20 64 	st  %g1, [ %l0 + 0x64 ]
410037ac:	c2 04 20 d4 	ld  [ %l0 + 0xd4 ], %g1
410037b0:	c2 24 20 a0 	st  %g1, [ %l0 + 0xa0 ]
410037b4:	c2 04 20 d8 	ld  [ %l0 + 0xd8 ], %g1
410037b8:	c2 24 20 ac 	st  %g1, [ %l0 + 0xac ]
410037bc:	c2 04 20 dc 	ld  [ %l0 + 0xdc ], %g1
410037c0:	39 10 40 04 	sethi  %hi(0x41001000), %i4
410037c4:	c0 24 20 54 	clr  [ %l0 + 0x54 ]
410037c8:	c0 24 20 60 	clr  [ %l0 + 0x60 ]
410037cc:	c0 24 20 68 	clr  [ %l0 + 0x68 ]
410037d0:	f6 04 20 e0 	ld  [ %l0 + 0xe0 ], %i3
410037d4:	c2 24 20 b0 	st  %g1, [ %l0 + 0xb0 ]
410037d8:	b8 17 23 88 	or  %i4, 0x388, %i4
410037dc:	f2 04 20 f0 	ld  [ %l0 + 0xf0 ], %i1
410037e0:	f4 04 20 ec 	ld  [ %l0 + 0xec ], %i2
410037e4:	7f ff fa 58 	call  41002144 <_CPU_Context_Initialize>
410037e8:	91 ec 21 00 	restore  %l0, 0x100, %o0
410037ec:	01 00 00 00 	nop 

410037f0 <_Thread_queue_Dequeue>:
410037f0:	9d e3 bf a0 	save  %sp, -96, %sp
410037f4:	c2 06 20 34 	ld  [ %i0 + 0x34 ], %g1
410037f8:	80 a0 60 00 	cmp  %g1, 0
410037fc:	12 80 00 04 	bne  4100380c <_Thread_queue_Dequeue+0x1c>
41003800:	80 a0 60 01 	cmp  %g1, 1
41003804:	40 00 00 0d 	call  41003838 <_Thread_queue_Dequeue_fifo>
41003808:	81 e8 00 00 	restore 
4100380c:	02 80 00 08 	be  4100382c <_Thread_queue_Dequeue+0x3c>
41003810:	90 10 20 00 	clr  %o0
41003814:	92 10 20 01 	mov  1, %o1
41003818:	94 10 20 25 	mov  0x25, %o2
4100381c:	7f ff f5 21 	call  41000ca0 <_Internal_error_Occurred>
41003820:	b0 10 20 00 	clr  %i0
41003824:	81 c7 e0 08 	ret 
41003828:	81 e8 00 00 	restore 
4100382c:	40 00 00 42 	call  41003934 <_Thread_queue_Dequeue_priority>
41003830:	81 e8 00 00 	restore 
41003834:	01 00 00 00 	nop 

41003838 <_Thread_queue_Dequeue_fifo>:
41003838:	9d e3 bf a0 	save  %sp, -96, %sp
4100383c:	40 00 0a 70 	call  410061fc <xky_sparc_disable_interrupts>
41003840:	01 00 00 00 	nop 
41003844:	86 10 00 08 	mov  %o0, %g3
41003848:	c2 06 00 00 	ld  [ %i0 ], %g1
4100384c:	84 06 20 04 	add  %i0, 4, %g2
41003850:	80 a0 40 02 	cmp  %g1, %g2
41003854:	22 80 00 1e 	be,a   410038cc <_Thread_queue_Dequeue_fifo+0x94>
41003858:	c2 06 20 30 	ld  [ %i0 + 0x30 ], %g1
4100385c:	c4 00 40 00 	ld  [ %g1 ], %g2
41003860:	c4 26 00 00 	st  %g2, [ %i0 ]
41003864:	f0 20 a0 04 	st  %i0, [ %g2 + 4 ]
41003868:	c0 20 60 4c 	clr  [ %g1 + 0x4c ]
4100386c:	b0 10 00 01 	mov  %g1, %i0
41003870:	c2 00 60 78 	ld  [ %g1 + 0x78 ], %g1
41003874:	80 a0 60 02 	cmp  %g1, 2
41003878:	02 80 00 0a 	be  410038a0 <_Thread_queue_Dequeue_fifo+0x68>
4100387c:	82 10 20 03 	mov  3, %g1
41003880:	40 00 0a 63 	call  4100620c <xky_sparc_enable_interrupts>
41003884:	01 00 00 00 	nop 
41003888:	90 10 00 18 	mov  %i0, %o0
4100388c:	13 04 00 ff 	sethi  %hi(0x1003fc00), %o1
41003890:	7f ff ff 7a 	call  41003678 <_Thread_Clear_state>
41003894:	92 12 63 f8 	or  %o1, 0x3f8, %o1	! 1003fff8 <RAM_SIZE+0xfc3fff8>
41003898:	81 c7 e0 08 	ret 
4100389c:	81 e8 00 00 	restore 
410038a0:	c2 26 20 78 	st  %g1, [ %i0 + 0x78 ]
410038a4:	40 00 0a 5a 	call  4100620c <xky_sparc_enable_interrupts>
410038a8:	01 00 00 00 	nop 
410038ac:	7f ff f9 b1 	call  41001f70 <_Watchdog_Remove>
410038b0:	90 06 20 70 	add  %i0, 0x70, %o0
410038b4:	90 10 00 18 	mov  %i0, %o0
410038b8:	13 04 00 ff 	sethi  %hi(0x1003fc00), %o1
410038bc:	7f ff ff 6f 	call  41003678 <_Thread_Clear_state>
410038c0:	92 12 63 f8 	or  %o1, 0x3f8, %o1	! 1003fff8 <RAM_SIZE+0xfc3fff8>
410038c4:	81 c7 e0 08 	ret 
410038c8:	81 e8 00 00 	restore 
410038cc:	80 a0 60 02 	cmp  %g1, 2
410038d0:	18 80 00 11 	bgu  41003914 <_Thread_queue_Dequeue_fifo+0xdc>
410038d4:	80 a0 60 03 	cmp  %g1, 3
410038d8:	80 a0 60 01 	cmp  %g1, 1
410038dc:	0a 80 00 09 	bcs  41003900 <_Thread_queue_Dequeue_fifo+0xc8>
410038e0:	82 10 20 03 	mov  3, %g1
410038e4:	c2 26 20 30 	st  %g1, [ %i0 + 0x30 ]
410038e8:	40 00 0a 49 	call  4100620c <xky_sparc_enable_interrupts>
410038ec:	01 00 00 00 	nop 
410038f0:	03 10 40 19 	sethi  %hi(0x41006400), %g1
410038f4:	f0 00 63 94 	ld  [ %g1 + 0x394 ], %i0	! 41006794 <_Thread_Executing>
410038f8:	81 c7 e0 08 	ret 
410038fc:	81 e8 00 00 	restore 
41003900:	b0 10 20 00 	clr  %i0
41003904:	40 00 0a 42 	call  4100620c <xky_sparc_enable_interrupts>
41003908:	90 10 00 03 	mov  %g3, %o0
4100390c:	81 c7 e0 08 	ret 
41003910:	81 e8 00 00 	restore 
41003914:	02 bf ff fb 	be  41003900 <_Thread_queue_Dequeue_fifo+0xc8>
41003918:	90 10 20 00 	clr  %o0
4100391c:	92 10 20 01 	mov  1, %o1
41003920:	94 10 20 24 	mov  0x24, %o2
41003924:	7f ff f4 df 	call  41000ca0 <_Internal_error_Occurred>
41003928:	b0 10 20 00 	clr  %i0
4100392c:	81 c7 e0 08 	ret 
41003930:	81 e8 00 00 	restore 

41003934 <_Thread_queue_Dequeue_priority>:
41003934:	9d e3 bf a0 	save  %sp, -96, %sp
41003938:	40 00 0a 31 	call  410061fc <xky_sparc_disable_interrupts>
4100393c:	01 00 00 00 	nop 
41003940:	a0 10 00 08 	mov  %o0, %l0
41003944:	84 10 20 00 	clr  %g2
41003948:	82 10 00 18 	mov  %i0, %g1
4100394c:	86 00 60 04 	add  %g1, 4, %g3
41003950:	c8 00 40 00 	ld  [ %g1 ], %g4
41003954:	80 a1 00 03 	cmp  %g4, %g3
41003958:	32 80 00 4d 	bne,a   41003a8c <_Thread_queue_Dequeue_priority+0x158>
4100395c:	82 00 80 02 	add  %g2, %g2, %g1
41003960:	84 00 a0 01 	inc  %g2
41003964:	80 a0 a0 04 	cmp  %g2, 4
41003968:	12 bf ff f9 	bne  4100394c <_Thread_queue_Dequeue_priority+0x18>
4100396c:	82 00 60 0c 	add  %g1, 0xc, %g1
41003970:	c2 06 20 30 	ld  [ %i0 + 0x30 ], %g1
41003974:	80 a0 60 02 	cmp  %g1, 2
41003978:	08 80 00 2c 	bleu  41003a28 <_Thread_queue_Dequeue_priority+0xf4>
4100397c:	80 a0 60 01 	cmp  %g1, 1
41003980:	80 a0 60 03 	cmp  %g1, 3
41003984:	02 80 00 32 	be  41003a4c <_Thread_queue_Dequeue_priority+0x118>
41003988:	90 10 20 00 	clr  %o0
4100398c:	92 10 20 01 	mov  1, %o1
41003990:	94 10 20 24 	mov  0x24, %o2
41003994:	7f ff f4 c3 	call  41000ca0 <_Internal_error_Occurred>
41003998:	b0 10 20 00 	clr  %i0
4100399c:	84 06 20 44 	add  %i0, 0x44, %g2
410039a0:	c0 26 20 4c 	clr  [ %i0 + 0x4c ]
410039a4:	c2 06 20 40 	ld  [ %i0 + 0x40 ], %g1
410039a8:	c6 06 00 00 	ld  [ %i0 ], %g3
410039ac:	80 a0 40 02 	cmp  %g1, %g2
410039b0:	02 80 00 3b 	be  41003a9c <_Thread_queue_Dequeue_priority+0x168>
410039b4:	c4 06 20 04 	ld  [ %i0 + 4 ], %g2
410039b8:	c8 06 20 48 	ld  [ %i0 + 0x48 ], %g4
410039bc:	da 00 40 00 	ld  [ %g1 ], %o5
410039c0:	c2 20 e0 04 	st  %g1, [ %g3 + 4 ]
410039c4:	c2 20 80 00 	st  %g1, [ %g2 ]
410039c8:	c6 20 40 00 	st  %g3, [ %g1 ]
410039cc:	c4 20 60 04 	st  %g2, [ %g1 + 4 ]
410039d0:	c6 06 20 40 	ld  [ %i0 + 0x40 ], %g3
410039d4:	c4 06 20 48 	ld  [ %i0 + 0x48 ], %g2
410039d8:	80 a0 c0 02 	cmp  %g3, %g2
410039dc:	02 80 00 07 	be  410039f8 <_Thread_queue_Dequeue_priority+0xc4>
410039e0:	84 00 60 40 	add  %g1, 0x40, %g2
410039e4:	c4 23 60 04 	st  %g2, [ %o5 + 4 ]
410039e8:	da 20 60 40 	st  %o5, [ %g1 + 0x40 ]
410039ec:	c8 20 60 48 	st  %g4, [ %g1 + 0x48 ]
410039f0:	82 00 60 44 	add  %g1, 0x44, %g1
410039f4:	c2 21 00 00 	st  %g1, [ %g4 ]
410039f8:	c2 06 20 78 	ld  [ %i0 + 0x78 ], %g1
410039fc:	80 a0 60 02 	cmp  %g1, 2
41003a00:	02 80 00 18 	be  41003a60 <_Thread_queue_Dequeue_priority+0x12c>
41003a04:	82 10 20 03 	mov  3, %g1
41003a08:	40 00 0a 01 	call  4100620c <xky_sparc_enable_interrupts>
41003a0c:	90 10 00 10 	mov  %l0, %o0
41003a10:	90 10 00 18 	mov  %i0, %o0
41003a14:	13 04 00 ff 	sethi  %hi(0x1003fc00), %o1
41003a18:	7f ff ff 18 	call  41003678 <_Thread_Clear_state>
41003a1c:	92 12 63 f8 	or  %o1, 0x3f8, %o1	! 1003fff8 <RAM_SIZE+0xfc3fff8>
41003a20:	81 c7 e0 08 	ret 
41003a24:	81 e8 00 00 	restore 
41003a28:	0a 80 00 09 	bcs  41003a4c <_Thread_queue_Dequeue_priority+0x118>
41003a2c:	82 10 20 03 	mov  3, %g1
41003a30:	c2 26 20 30 	st  %g1, [ %i0 + 0x30 ]
41003a34:	40 00 09 f6 	call  4100620c <xky_sparc_enable_interrupts>
41003a38:	90 10 00 10 	mov  %l0, %o0
41003a3c:	03 10 40 19 	sethi  %hi(0x41006400), %g1
41003a40:	f0 00 63 94 	ld  [ %g1 + 0x394 ], %i0	! 41006794 <_Thread_Executing>
41003a44:	81 c7 e0 08 	ret 
41003a48:	81 e8 00 00 	restore 
41003a4c:	b0 10 20 00 	clr  %i0
41003a50:	40 00 09 ef 	call  4100620c <xky_sparc_enable_interrupts>
41003a54:	90 10 00 10 	mov  %l0, %o0
41003a58:	81 c7 e0 08 	ret 
41003a5c:	81 e8 00 00 	restore 
41003a60:	c2 26 20 78 	st  %g1, [ %i0 + 0x78 ]
41003a64:	40 00 09 ea 	call  4100620c <xky_sparc_enable_interrupts>
41003a68:	90 10 00 10 	mov  %l0, %o0
41003a6c:	7f ff f9 41 	call  41001f70 <_Watchdog_Remove>
41003a70:	90 06 20 70 	add  %i0, 0x70, %o0
41003a74:	90 10 00 18 	mov  %i0, %o0
41003a78:	13 04 00 ff 	sethi  %hi(0x1003fc00), %o1
41003a7c:	7f ff fe ff 	call  41003678 <_Thread_Clear_state>
41003a80:	92 12 63 f8 	or  %o1, 0x3f8, %o1	! 1003fff8 <RAM_SIZE+0xfc3fff8>
41003a84:	81 c7 e0 08 	ret 
41003a88:	81 e8 00 00 	restore 
41003a8c:	84 00 40 02 	add  %g1, %g2, %g2
41003a90:	85 28 a0 02 	sll  %g2, 2, %g2
41003a94:	10 bf ff c2 	b  4100399c <_Thread_queue_Dequeue_priority+0x68>
41003a98:	f0 06 00 02 	ld  [ %i0 + %g2 ], %i0
41003a9c:	c4 20 e0 04 	st  %g2, [ %g3 + 4 ]
41003aa0:	10 bf ff d6 	b  410039f8 <_Thread_queue_Dequeue_priority+0xc4>
41003aa4:	c6 20 80 00 	st  %g3, [ %g2 ]

41003aa8 <_Thread_queue_Extract>:
41003aa8:	c2 02 20 34 	ld  [ %o0 + 0x34 ], %g1
41003aac:	80 a0 60 00 	cmp  %g1, 0
41003ab0:	12 80 00 05 	bne  41003ac4 <_Thread_queue_Extract+0x1c>
41003ab4:	80 a0 60 01 	cmp  %g1, 1
41003ab8:	82 13 c0 00 	mov  %o7, %g1
41003abc:	40 00 00 0e 	call  41003af4 <_Thread_queue_Extract_fifo>
41003ac0:	9e 10 40 00 	mov  %g1, %o7
41003ac4:	02 80 00 07 	be  41003ae0 <_Thread_queue_Extract+0x38>
41003ac8:	94 10 20 25 	mov  0x25, %o2
41003acc:	90 10 20 00 	clr  %o0
41003ad0:	92 10 20 01 	mov  1, %o1
41003ad4:	82 13 c0 00 	mov  %o7, %g1
41003ad8:	7f ff f4 72 	call  41000ca0 <_Internal_error_Occurred>
41003adc:	9e 10 40 00 	mov  %g1, %o7
41003ae0:	94 10 20 00 	clr  %o2
41003ae4:	82 13 c0 00 	mov  %o7, %g1
41003ae8:	40 00 00 28 	call  41003b88 <_Thread_queue_Extract_priority_helper>
41003aec:	9e 10 40 00 	mov  %g1, %o7
41003af0:	01 00 00 00 	nop 

41003af4 <_Thread_queue_Extract_fifo>:
41003af4:	9d e3 bf a0 	save  %sp, -96, %sp
41003af8:	40 00 09 c1 	call  410061fc <xky_sparc_disable_interrupts>
41003afc:	01 00 00 00 	nop 
41003b00:	b0 10 00 08 	mov  %o0, %i0
41003b04:	03 00 00 ef 	sethi  %hi(0x3bc00), %g1
41003b08:	c4 06 60 10 	ld  [ %i1 + 0x10 ], %g2
41003b0c:	82 10 62 e0 	or  %g1, 0x2e0, %g1
41003b10:	80 88 80 01 	btst  %g2, %g1
41003b14:	02 80 00 1a 	be  41003b7c <_Thread_queue_Extract_fifo+0x88>
41003b18:	01 00 00 00 	nop 
41003b1c:	c2 06 40 00 	ld  [ %i1 ], %g1
41003b20:	c4 06 60 04 	ld  [ %i1 + 4 ], %g2
41003b24:	c0 26 60 4c 	clr  [ %i1 + 0x4c ]
41003b28:	c2 20 80 00 	st  %g1, [ %g2 ]
41003b2c:	c4 20 60 04 	st  %g2, [ %g1 + 4 ]
41003b30:	c2 06 60 78 	ld  [ %i1 + 0x78 ], %g1
41003b34:	80 a0 60 02 	cmp  %g1, 2
41003b38:	02 80 00 08 	be  41003b58 <_Thread_queue_Extract_fifo+0x64>
41003b3c:	82 10 20 03 	mov  3, %g1
41003b40:	40 00 09 b3 	call  4100620c <xky_sparc_enable_interrupts>
41003b44:	b0 10 00 19 	mov  %i1, %i0
41003b48:	33 04 00 ff 	sethi  %hi(0x1003fc00), %i1
41003b4c:	b2 16 63 f8 	or  %i1, 0x3f8, %i1	! 1003fff8 <RAM_SIZE+0xfc3fff8>
41003b50:	7f ff fe ca 	call  41003678 <_Thread_Clear_state>
41003b54:	81 e8 00 00 	restore 
41003b58:	c2 26 60 78 	st  %g1, [ %i1 + 0x78 ]
41003b5c:	40 00 09 ac 	call  4100620c <xky_sparc_enable_interrupts>
41003b60:	b0 10 00 19 	mov  %i1, %i0
41003b64:	7f ff f9 03 	call  41001f70 <_Watchdog_Remove>
41003b68:	90 06 60 70 	add  %i1, 0x70, %o0
41003b6c:	33 04 00 ff 	sethi  %hi(0x1003fc00), %i1
41003b70:	b2 16 63 f8 	or  %i1, 0x3f8, %i1	! 1003fff8 <RAM_SIZE+0xfc3fff8>
41003b74:	7f ff fe c1 	call  41003678 <_Thread_Clear_state>
41003b78:	81 e8 00 00 	restore 
41003b7c:	40 00 09 a4 	call  4100620c <xky_sparc_enable_interrupts>
41003b80:	81 e8 00 00 	restore 
41003b84:	01 00 00 00 	nop 

41003b88 <_Thread_queue_Extract_priority_helper>:
41003b88:	9d e3 bf a0 	save  %sp, -96, %sp
41003b8c:	40 00 09 9c 	call  410061fc <xky_sparc_disable_interrupts>
41003b90:	01 00 00 00 	nop 
41003b94:	03 00 00 ef 	sethi  %hi(0x3bc00), %g1
41003b98:	c4 06 60 10 	ld  [ %i1 + 0x10 ], %g2
41003b9c:	82 10 62 e0 	or  %g1, 0x2e0, %g1
41003ba0:	80 88 80 01 	btst  %g2, %g1
41003ba4:	02 80 00 24 	be  41003c34 <_Thread_queue_Extract_priority_helper+0xac>
41003ba8:	84 06 60 44 	add  %i1, 0x44, %g2
41003bac:	c2 06 60 40 	ld  [ %i1 + 0x40 ], %g1
41003bb0:	c6 06 40 00 	ld  [ %i1 ], %g3
41003bb4:	80 a0 40 02 	cmp  %g1, %g2
41003bb8:	02 80 00 2a 	be  41003c60 <_Thread_queue_Extract_priority_helper+0xd8>
41003bbc:	c4 06 60 04 	ld  [ %i1 + 4 ], %g2
41003bc0:	c8 06 60 48 	ld  [ %i1 + 0x48 ], %g4
41003bc4:	da 00 40 00 	ld  [ %g1 ], %o5
41003bc8:	c2 20 e0 04 	st  %g1, [ %g3 + 4 ]
41003bcc:	c2 20 80 00 	st  %g1, [ %g2 ]
41003bd0:	c6 20 40 00 	st  %g3, [ %g1 ]
41003bd4:	c4 20 60 04 	st  %g2, [ %g1 + 4 ]
41003bd8:	c6 06 60 40 	ld  [ %i1 + 0x40 ], %g3
41003bdc:	c4 06 60 48 	ld  [ %i1 + 0x48 ], %g2
41003be0:	80 a0 c0 02 	cmp  %g3, %g2
41003be4:	02 80 00 07 	be  41003c00 <_Thread_queue_Extract_priority_helper+0x78>
41003be8:	84 00 60 40 	add  %g1, 0x40, %g2
41003bec:	c4 23 60 04 	st  %g2, [ %o5 + 4 ]
41003bf0:	da 20 60 40 	st  %o5, [ %g1 + 0x40 ]
41003bf4:	c8 20 60 48 	st  %g4, [ %g1 + 0x48 ]
41003bf8:	82 00 60 44 	add  %g1, 0x44, %g1
41003bfc:	c2 21 00 00 	st  %g1, [ %g4 ]
41003c00:	80 a6 a0 00 	cmp  %i2, 0
41003c04:	12 80 00 0c 	bne  41003c34 <_Thread_queue_Extract_priority_helper+0xac>
41003c08:	01 00 00 00 	nop 
41003c0c:	c2 06 60 78 	ld  [ %i1 + 0x78 ], %g1
41003c10:	80 a0 60 02 	cmp  %g1, 2
41003c14:	02 80 00 0a 	be  41003c3c <_Thread_queue_Extract_priority_helper+0xb4>
41003c18:	82 10 20 03 	mov  3, %g1
41003c1c:	40 00 09 7c 	call  4100620c <xky_sparc_enable_interrupts>
41003c20:	b0 10 00 19 	mov  %i1, %i0
41003c24:	33 04 00 ff 	sethi  %hi(0x1003fc00), %i1
41003c28:	b2 16 63 f8 	or  %i1, 0x3f8, %i1	! 1003fff8 <RAM_SIZE+0xfc3fff8>
41003c2c:	7f ff fe 93 	call  41003678 <_Thread_Clear_state>
41003c30:	81 e8 00 00 	restore 
41003c34:	40 00 09 76 	call  4100620c <xky_sparc_enable_interrupts>
41003c38:	91 e8 00 08 	restore  %g0, %o0, %o0
41003c3c:	c2 26 60 78 	st  %g1, [ %i1 + 0x78 ]
41003c40:	40 00 09 73 	call  4100620c <xky_sparc_enable_interrupts>
41003c44:	b0 10 00 19 	mov  %i1, %i0
41003c48:	7f ff f8 ca 	call  41001f70 <_Watchdog_Remove>
41003c4c:	90 06 60 70 	add  %i1, 0x70, %o0
41003c50:	33 04 00 ff 	sethi  %hi(0x1003fc00), %i1
41003c54:	b2 16 63 f8 	or  %i1, 0x3f8, %i1	! 1003fff8 <RAM_SIZE+0xfc3fff8>
41003c58:	7f ff fe 88 	call  41003678 <_Thread_Clear_state>
41003c5c:	81 e8 00 00 	restore 
41003c60:	c4 20 e0 04 	st  %g2, [ %g3 + 4 ]
41003c64:	10 bf ff e7 	b  41003c00 <_Thread_queue_Extract_priority_helper+0x78>
41003c68:	c6 20 80 00 	st  %g3, [ %g2 ]

41003c6c <_Thread_queue_Requeue>:
41003c6c:	9d e3 bf a0 	save  %sp, -96, %sp
41003c70:	80 a6 20 00 	cmp  %i0, 0
41003c74:	02 80 00 0c 	be  41003ca4 <_Thread_queue_Requeue+0x38>
41003c78:	01 00 00 00 	nop 
41003c7c:	e2 06 20 34 	ld  [ %i0 + 0x34 ], %l1
41003c80:	80 a4 60 00 	cmp  %l1, 0
41003c84:	02 80 00 08 	be  41003ca4 <_Thread_queue_Requeue+0x38>
41003c88:	80 a4 60 01 	cmp  %l1, 1
41003c8c:	02 80 00 08 	be  41003cac <_Thread_queue_Requeue+0x40>
41003c90:	01 00 00 00 	nop 
41003c94:	b0 10 20 00 	clr  %i0	! 0 <PROM_START>
41003c98:	b2 10 20 01 	mov  1, %i1
41003c9c:	7f ff f4 01 	call  41000ca0 <_Internal_error_Occurred>
41003ca0:	95 e8 20 25 	restore  %g0, 0x25, %o2
41003ca4:	81 c7 e0 08 	ret 
41003ca8:	81 e8 00 00 	restore 
41003cac:	40 00 09 54 	call  410061fc <xky_sparc_disable_interrupts>
41003cb0:	01 00 00 00 	nop 
41003cb4:	a0 10 00 08 	mov  %o0, %l0
41003cb8:	03 00 00 ef 	sethi  %hi(0x3bc00), %g1
41003cbc:	c4 06 60 10 	ld  [ %i1 + 0x10 ], %g2
41003cc0:	82 10 62 e0 	or  %g1, 0x2e0, %g1
41003cc4:	80 88 80 01 	btst  %g2, %g1
41003cc8:	12 80 00 04 	bne  41003cd8 <_Thread_queue_Requeue+0x6c>
41003ccc:	94 10 20 01 	mov  1, %o2
41003cd0:	40 00 09 4f 	call  4100620c <xky_sparc_enable_interrupts>
41003cd4:	91 e8 00 10 	restore  %g0, %l0, %o0
41003cd8:	90 10 00 18 	mov  %i0, %o0
41003cdc:	92 10 00 19 	mov  %i1, %o1
41003ce0:	7f ff ff aa 	call  41003b88 <_Thread_queue_Extract_priority_helper>
41003ce4:	e2 26 20 30 	st  %l1, [ %i0 + 0x30 ]
41003ce8:	90 10 00 18 	mov  %i0, %o0
41003cec:	40 00 00 af 	call  41003fa8 <_Thread_queue_Enqueue_priority>
41003cf0:	92 10 00 19 	mov  %i1, %o1
41003cf4:	40 00 09 46 	call  4100620c <xky_sparc_enable_interrupts>
41003cf8:	91 e8 00 10 	restore  %g0, %l0, %o0
41003cfc:	01 00 00 00 	nop 

41003d00 <_Thread_Ready>:
41003d00:	9d e3 bf a0 	save  %sp, -96, %sp
41003d04:	40 00 09 3e 	call  410061fc <xky_sparc_disable_interrupts>
41003d08:	a0 10 00 18 	mov  %i0, %l0
41003d0c:	b0 10 00 08 	mov  %o0, %i0
41003d10:	c2 04 20 b4 	ld  [ %l0 + 0xb4 ], %g1
41003d14:	84 00 60 04 	add  %g1, 4, %g2
41003d18:	c4 24 00 00 	st  %g2, [ %l0 ]
41003d1c:	c6 14 20 be 	lduh  [ %l0 + 0xbe ], %g3
41003d20:	c4 00 60 08 	ld  [ %g1 + 8 ], %g2
41003d24:	e0 20 60 08 	st  %l0, [ %g1 + 8 ]
41003d28:	c2 04 20 b8 	ld  [ %l0 + 0xb8 ], %g1
41003d2c:	c8 10 40 00 	lduh  [ %g1 ], %g4
41003d30:	86 11 00 03 	or  %g4, %g3, %g3
41003d34:	c6 30 40 00 	sth  %g3, [ %g1 ]
41003d38:	c4 24 20 04 	st  %g2, [ %l0 + 4 ]
41003d3c:	c2 14 20 bc 	lduh  [ %l0 + 0xbc ], %g1
41003d40:	e0 20 80 00 	st  %l0, [ %g2 ]
41003d44:	c0 24 20 10 	clr  [ %l0 + 0x10 ]
41003d48:	21 10 40 29 	sethi  %hi(0x4100a400), %l0
41003d4c:	c4 14 23 e8 	lduh  [ %l0 + 0x3e8 ], %g2	! 4100a7e8 <_Priority_Major_bit_map>
41003d50:	82 10 80 01 	or  %g2, %g1, %g1
41003d54:	c2 34 23 e8 	sth  %g1, [ %l0 + 0x3e8 ]
41003d58:	40 00 09 2d 	call  4100620c <xky_sparc_enable_interrupts>
41003d5c:	01 00 00 00 	nop 
41003d60:	40 00 09 27 	call  410061fc <xky_sparc_disable_interrupts>
41003d64:	01 00 00 00 	nop 
41003d68:	05 10 40 2a 	sethi  %hi(0x4100a800), %g2
41003d6c:	c2 14 23 e8 	lduh  [ %l0 + 0x3e8 ], %g1
41003d70:	da 00 a0 d8 	ld  [ %g2 + 0xd8 ], %o5
41003d74:	83 28 60 10 	sll  %g1, 0x10, %g1
41003d78:	85 30 60 10 	srl  %g1, 0x10, %g2
41003d7c:	80 a0 a0 ff 	cmp  %g2, 0xff
41003d80:	18 80 00 2c 	bgu  41003e30 <_Thread_Ready+0x130>
41003d84:	83 30 60 18 	srl  %g1, 0x18, %g1
41003d88:	07 10 40 18 	sethi  %hi(0x41006000), %g3
41003d8c:	86 10 e3 e0 	or  %g3, 0x3e0, %g3	! 410063e0 <__log2table>
41003d90:	c4 08 c0 02 	ldub  [ %g3 + %g2 ], %g2
41003d94:	84 00 a0 08 	add  %g2, 8, %g2
41003d98:	09 10 40 29 	sethi  %hi(0x4100a400), %g4
41003d9c:	88 11 23 f0 	or  %g4, 0x3f0, %g4	! 4100a7f0 <_Priority_Bit_map>
41003da0:	85 28 a0 10 	sll  %g2, 0x10, %g2
41003da4:	83 30 a0 0f 	srl  %g2, 0xf, %g1
41003da8:	c2 11 00 01 	lduh  [ %g4 + %g1 ], %g1
41003dac:	83 28 60 10 	sll  %g1, 0x10, %g1
41003db0:	89 30 60 10 	srl  %g1, 0x10, %g4
41003db4:	80 a1 20 ff 	cmp  %g4, 0xff
41003db8:	18 80 00 1c 	bgu  41003e28 <_Thread_Ready+0x128>
41003dbc:	83 30 60 18 	srl  %g1, 0x18, %g1
41003dc0:	c2 08 c0 04 	ldub  [ %g3 + %g4 ], %g1
41003dc4:	82 00 60 08 	add  %g1, 8, %g1
41003dc8:	85 30 a0 0c 	srl  %g2, 0xc, %g2
41003dcc:	83 28 60 10 	sll  %g1, 0x10, %g1
41003dd0:	83 30 60 10 	srl  %g1, 0x10, %g1
41003dd4:	82 00 40 02 	add  %g1, %g2, %g1
41003dd8:	84 00 40 01 	add  %g1, %g1, %g2
41003ddc:	82 00 80 01 	add  %g2, %g1, %g1
41003de0:	05 10 40 19 	sethi  %hi(0x41006400), %g2
41003de4:	83 28 60 02 	sll  %g1, 2, %g1
41003de8:	c2 03 40 01 	ld  [ %o5 + %g1 ], %g1
41003dec:	c2 20 a3 98 	st  %g1, [ %g2 + 0x398 ]
41003df0:	05 10 40 19 	sethi  %hi(0x41006400), %g2
41003df4:	c4 00 a3 94 	ld  [ %g2 + 0x394 ], %g2	! 41006794 <_Thread_Executing>
41003df8:	80 a0 40 02 	cmp  %g1, %g2
41003dfc:	02 80 00 09 	be  41003e20 <_Thread_Ready+0x120>
41003e00:	01 00 00 00 	nop 
41003e04:	c2 00 a0 a0 	ld  [ %g2 + 0xa0 ], %g1
41003e08:	80 a0 60 00 	cmp  %g1, 0
41003e0c:	02 80 00 05 	be  41003e20 <_Thread_Ready+0x120>
41003e10:	01 00 00 00 	nop 
41003e14:	84 10 20 01 	mov  1, %g2	! 1 <PROM_START+0x1>
41003e18:	03 10 40 2a 	sethi  %hi(0x4100a800), %g1
41003e1c:	c4 20 61 c0 	st  %g2, [ %g1 + 0x1c0 ]	! 4100a9c0 <_Context_Switch_necessary>
41003e20:	40 00 08 fb 	call  4100620c <xky_sparc_enable_interrupts>
41003e24:	81 e8 00 00 	restore 
41003e28:	10 bf ff e8 	b  41003dc8 <_Thread_Ready+0xc8>
41003e2c:	c2 08 c0 01 	ldub  [ %g3 + %g1 ], %g1
41003e30:	07 10 40 18 	sethi  %hi(0x41006000), %g3
41003e34:	86 10 e3 e0 	or  %g3, 0x3e0, %g3	! 410063e0 <__log2table>
41003e38:	10 bf ff d8 	b  41003d98 <_Thread_Ready+0x98>
41003e3c:	c4 08 c0 01 	ldub  [ %g3 + %g1 ], %g2

41003e40 <_Thread_Set_transient>:
41003e40:	9d e3 bf a0 	save  %sp, -96, %sp
41003e44:	40 00 08 ee 	call  410061fc <xky_sparc_disable_interrupts>
41003e48:	e2 06 20 b4 	ld  [ %i0 + 0xb4 ], %l1
41003e4c:	c2 06 20 10 	ld  [ %i0 + 0x10 ], %g1
41003e50:	84 10 60 04 	or  %g1, 4, %g2
41003e54:	80 a0 60 00 	cmp  %g1, 0
41003e58:	12 80 00 0b 	bne  41003e84 <_Thread_Set_transient+0x44>
41003e5c:	c4 26 20 10 	st  %g2, [ %i0 + 0x10 ]
41003e60:	c4 04 40 00 	ld  [ %l1 ], %g2
41003e64:	c2 04 60 08 	ld  [ %l1 + 8 ], %g1
41003e68:	80 a0 80 01 	cmp  %g2, %g1
41003e6c:	22 80 00 08 	be,a   41003e8c <_Thread_Set_transient+0x4c>
41003e70:	c4 06 20 b8 	ld  [ %i0 + 0xb8 ], %g2
41003e74:	c4 06 20 04 	ld  [ %i0 + 4 ], %g2
41003e78:	c2 06 00 00 	ld  [ %i0 ], %g1
41003e7c:	c2 20 80 00 	st  %g1, [ %g2 ]
41003e80:	c4 20 60 04 	st  %g2, [ %g1 + 4 ]
41003e84:	40 00 08 e2 	call  4100620c <xky_sparc_enable_interrupts>
41003e88:	91 e8 00 08 	restore  %g0, %o0, %o0
41003e8c:	c2 16 20 c2 	lduh  [ %i0 + 0xc2 ], %g1
41003e90:	c6 10 80 00 	lduh  [ %g2 ], %g3
41003e94:	e2 24 60 08 	st  %l1, [ %l1 + 8 ]
41003e98:	82 08 c0 01 	and  %g3, %g1, %g1
41003e9c:	c0 24 60 04 	clr  [ %l1 + 4 ]
41003ea0:	c2 30 80 00 	sth  %g1, [ %g2 ]
41003ea4:	84 04 60 04 	add  %l1, 4, %g2
41003ea8:	83 28 60 10 	sll  %g1, 0x10, %g1
41003eac:	80 a0 60 00 	cmp  %g1, 0
41003eb0:	12 bf ff f5 	bne  41003e84 <_Thread_Set_transient+0x44>
41003eb4:	c4 24 40 00 	st  %g2, [ %l1 ]
41003eb8:	c4 16 20 c0 	lduh  [ %i0 + 0xc0 ], %g2
41003ebc:	03 10 40 29 	sethi  %hi(0x4100a400), %g1
41003ec0:	c6 10 63 e8 	lduh  [ %g1 + 0x3e8 ], %g3	! 4100a7e8 <_Priority_Major_bit_map>
41003ec4:	84 08 c0 02 	and  %g3, %g2, %g2
41003ec8:	c4 30 63 e8 	sth  %g2, [ %g1 + 0x3e8 ]
41003ecc:	30 bf ff ee 	b,a   41003e84 <_Thread_Set_transient+0x44>

41003ed0 <_User_extensions_Add_API_set>:
41003ed0:	9d e3 bf a0 	save  %sp, -96, %sp
41003ed4:	11 10 40 2a 	sethi  %hi(0x4100a800), %o0
41003ed8:	92 10 00 18 	mov  %i0, %o1
41003edc:	7f ff f3 56 	call  41000c34 <_Chain_Append>
41003ee0:	90 12 21 d0 	or  %o0, 0x1d0, %o0
41003ee4:	c2 06 20 24 	ld  [ %i0 + 0x24 ], %g1
41003ee8:	80 a0 60 00 	cmp  %g1, 0
41003eec:	02 80 00 06 	be  41003f04 <_User_extensions_Add_API_set+0x34>
41003ef0:	b2 06 20 08 	add  %i0, 8, %i1
41003ef4:	c2 26 20 10 	st  %g1, [ %i0 + 0x10 ]
41003ef8:	31 10 40 2a 	sethi  %hi(0x4100a800), %i0
41003efc:	7f ff f3 4e 	call  41000c34 <_Chain_Append>
41003f00:	91 ee 21 c4 	restore  %i0, 0x1c4, %o0
41003f04:	81 c7 e0 08 	ret 
41003f08:	81 e8 00 00 	restore 

41003f0c <_Chain_Initialize>:
41003f0c:	c0 22 20 04 	clr  [ %o0 + 4 ]
41003f10:	80 a2 a0 00 	cmp  %o2, 0
41003f14:	02 80 00 0e 	be  41003f4c <_Chain_Initialize+0x40>
41003f18:	84 10 00 08 	mov  %o0, %g2
41003f1c:	94 02 bf ff 	add  %o2, -1, %o2
41003f20:	82 10 00 09 	mov  %o1, %g1
41003f24:	86 10 00 0a 	mov  %o2, %g3
41003f28:	c4 20 60 04 	st  %g2, [ %g1 + 4 ]
41003f2c:	c2 20 80 00 	st  %g1, [ %g2 ]
41003f30:	80 a2 a0 00 	cmp  %o2, 0
41003f34:	84 10 00 01 	mov  %g1, %g2
41003f38:	94 02 bf ff 	add  %o2, -1, %o2
41003f3c:	12 bf ff fb 	bne  41003f28 <_Chain_Initialize+0x1c>
41003f40:	82 00 40 0b 	add  %g1, %o3, %g1
41003f44:	84 5a c0 03 	smul  %o3, %g3, %g2
41003f48:	84 02 40 02 	add  %o1, %g2, %g2
41003f4c:	82 02 20 04 	add  %o0, 4, %g1
41003f50:	c2 20 80 00 	st  %g1, [ %g2 ]
41003f54:	81 c3 e0 08 	retl 
41003f58:	c4 22 20 08 	st  %g2, [ %o0 + 8 ]

41003f5c <_Chain_Get>:
41003f5c:	9d e3 bf a0 	save  %sp, -96, %sp
41003f60:	40 00 08 a7 	call  410061fc <xky_sparc_disable_interrupts>
41003f64:	a0 10 00 18 	mov  %i0, %l0
41003f68:	f0 06 00 00 	ld  [ %i0 ], %i0
41003f6c:	82 04 20 04 	add  %l0, 4, %g1
41003f70:	80 a6 00 01 	cmp  %i0, %g1
41003f74:	22 80 00 09 	be,a   41003f98 <_Chain_Get+0x3c>
41003f78:	b0 10 20 00 	clr  %i0
41003f7c:	c2 06 00 00 	ld  [ %i0 ], %g1
41003f80:	c2 24 00 00 	st  %g1, [ %l0 ]
41003f84:	e0 20 60 04 	st  %l0, [ %g1 + 4 ]
41003f88:	40 00 08 a1 	call  4100620c <xky_sparc_enable_interrupts>
41003f8c:	01 00 00 00 	nop 
41003f90:	81 c7 e0 08 	ret 
41003f94:	81 e8 00 00 	restore 
41003f98:	40 00 08 9d 	call  4100620c <xky_sparc_enable_interrupts>
41003f9c:	01 00 00 00 	nop 
41003fa0:	81 c7 e0 08 	ret 
41003fa4:	81 e8 00 00 	restore 

41003fa8 <_Thread_queue_Enqueue_priority>:
41003fa8:	9d e3 bf a0 	save  %sp, -96, %sp
41003fac:	82 06 60 44 	add  %i1, 0x44, %g1
41003fb0:	c0 26 60 44 	clr  [ %i1 + 0x44 ]
41003fb4:	c2 26 60 40 	st  %g1, [ %i1 + 0x40 ]
41003fb8:	82 06 60 40 	add  %i1, 0x40, %g1
41003fbc:	c2 26 60 48 	st  %g1, [ %i1 + 0x48 ]
41003fc0:	e2 06 60 14 	ld  [ %i1 + 0x14 ], %l1
41003fc4:	ea 06 20 38 	ld  [ %i0 + 0x38 ], %l5
41003fc8:	83 34 60 06 	srl  %l1, 6, %g1
41003fcc:	80 8c 60 20 	btst  0x20, %l1
41003fd0:	a6 00 40 01 	add  %g1, %g1, %l3
41003fd4:	a6 04 c0 01 	add  %l3, %g1, %l3
41003fd8:	a7 2c e0 02 	sll  %l3, 2, %l3
41003fdc:	12 80 00 34 	bne  410040ac <_Thread_queue_Enqueue_priority+0x104>
41003fe0:	a6 06 00 13 	add  %i0, %l3, %l3
41003fe4:	a8 04 e0 04 	add  %l3, 4, %l4
41003fe8:	40 00 08 85 	call  410061fc <xky_sparc_disable_interrupts>
41003fec:	01 00 00 00 	nop 
41003ff0:	ac 10 00 08 	mov  %o0, %l6
41003ff4:	e0 04 c0 00 	ld  [ %l3 ], %l0
41003ff8:	80 a4 00 14 	cmp  %l0, %l4
41003ffc:	32 80 00 18 	bne,a   4100405c <_Thread_queue_Enqueue_priority+0xb4>
41004000:	e4 04 20 14 	ld  [ %l0 + 0x14 ], %l2
41004004:	10 80 00 93 	b  41004250 <_Thread_queue_Enqueue_priority+0x2a8>
41004008:	a4 10 3f ff 	mov  -1, %l2
4100400c:	80 a4 00 14 	cmp  %l0, %l4
41004010:	02 80 00 17 	be  4100406c <_Thread_queue_Enqueue_priority+0xc4>
41004014:	90 10 00 16 	mov  %l6, %o0
41004018:	e4 04 20 14 	ld  [ %l0 + 0x14 ], %l2
4100401c:	80 a4 40 12 	cmp  %l1, %l2
41004020:	28 80 00 14 	bleu,a   41004070 <_Thread_queue_Enqueue_priority+0xc8>
41004024:	c2 06 20 30 	ld  [ %i0 + 0x30 ], %g1
41004028:	40 00 08 79 	call  4100620c <xky_sparc_enable_interrupts>
4100402c:	90 10 00 16 	mov  %l6, %o0
41004030:	40 00 08 73 	call  410061fc <xky_sparc_disable_interrupts>
41004034:	01 00 00 00 	nop 
41004038:	c2 04 20 10 	ld  [ %l0 + 0x10 ], %g1
4100403c:	80 8d 40 01 	btst  %l5, %g1
41004040:	02 80 00 81 	be  41004244 <_Thread_queue_Enqueue_priority+0x29c>
41004044:	01 00 00 00 	nop 
41004048:	e0 04 00 00 	ld  [ %l0 ], %l0
4100404c:	80 a4 00 14 	cmp  %l0, %l4
41004050:	02 80 00 07 	be  4100406c <_Thread_queue_Enqueue_priority+0xc4>
41004054:	90 10 00 16 	mov  %l6, %o0
41004058:	e4 04 20 14 	ld  [ %l0 + 0x14 ], %l2
4100405c:	80 a4 40 12 	cmp  %l1, %l2
41004060:	38 bf ff eb 	bgu,a   4100400c <_Thread_queue_Enqueue_priority+0x64>
41004064:	e0 04 00 00 	ld  [ %l0 ], %l0
41004068:	90 10 00 16 	mov  %l6, %o0
4100406c:	c2 06 20 30 	ld  [ %i0 + 0x30 ], %g1
41004070:	80 a0 60 01 	cmp  %g1, 1
41004074:	02 80 00 61 	be  410041f8 <_Thread_queue_Enqueue_priority+0x250>
41004078:	80 a4 40 12 	cmp  %l1, %l2
4100407c:	80 a0 60 02 	cmp  %g1, 2
41004080:	02 80 00 4d 	be  410041b4 <_Thread_queue_Enqueue_priority+0x20c>
41004084:	c0 26 20 30 	clr  [ %i0 + 0x30 ]
41004088:	80 a0 60 03 	cmp  %g1, 3
4100408c:	02 80 00 40 	be  4100418c <_Thread_queue_Enqueue_priority+0x1e4>
41004090:	b0 10 00 19 	mov  %i1, %i0
41004094:	33 04 00 ff 	sethi  %hi(0x1003fc00), %i1
41004098:	b2 16 63 f8 	or  %i1, 0x3f8, %i1	! 1003fff8 <RAM_SIZE+0xfc3fff8>
4100409c:	7f ff fd 77 	call  41003678 <_Thread_Clear_state>
410040a0:	81 e8 00 00 	restore 
410040a4:	40 00 08 5a 	call  4100620c <xky_sparc_enable_interrupts>
410040a8:	90 10 00 14 	mov  %l4, %o0
410040ac:	40 00 08 54 	call  410061fc <xky_sparc_disable_interrupts>
410040b0:	01 00 00 00 	nop 
410040b4:	a8 10 00 08 	mov  %o0, %l4
410040b8:	e0 04 e0 08 	ld  [ %l3 + 8 ], %l0
410040bc:	80 a4 00 13 	cmp  %l0, %l3
410040c0:	02 80 00 24 	be  41004150 <_Thread_queue_Enqueue_priority+0x1a8>
410040c4:	a4 10 21 00 	mov  0x100, %l2
410040c8:	e4 04 20 14 	ld  [ %l0 + 0x14 ], %l2
410040cc:	80 a4 40 12 	cmp  %l1, %l2
410040d0:	3a 80 00 20 	bcc,a   41004150 <_Thread_queue_Enqueue_priority+0x1a8>
410040d4:	90 10 00 14 	mov  %l4, %o0
410040d8:	e0 04 20 04 	ld  [ %l0 + 4 ], %l0
410040dc:	80 a4 c0 10 	cmp  %l3, %l0
410040e0:	32 80 00 19 	bne,a   41004144 <_Thread_queue_Enqueue_priority+0x19c>
410040e4:	e4 04 20 14 	ld  [ %l0 + 0x14 ], %l2
410040e8:	10 80 00 1a 	b  41004150 <_Thread_queue_Enqueue_priority+0x1a8>
410040ec:	90 10 00 14 	mov  %l4, %o0
410040f0:	40 00 08 47 	call  4100620c <xky_sparc_enable_interrupts>
410040f4:	90 10 00 14 	mov  %l4, %o0
410040f8:	40 00 08 41 	call  410061fc <xky_sparc_disable_interrupts>
410040fc:	01 00 00 00 	nop 
41004100:	c2 04 20 10 	ld  [ %l0 + 0x10 ], %g1
41004104:	80 8d 40 01 	btst  %l5, %g1
41004108:	02 bf ff e7 	be  410040a4 <_Thread_queue_Enqueue_priority+0xfc>
4100410c:	01 00 00 00 	nop 
41004110:	e0 04 20 04 	ld  [ %l0 + 4 ], %l0
41004114:	80 a4 00 13 	cmp  %l0, %l3
41004118:	02 80 00 0e 	be  41004150 <_Thread_queue_Enqueue_priority+0x1a8>
4100411c:	90 10 00 14 	mov  %l4, %o0
41004120:	e4 04 20 14 	ld  [ %l0 + 0x14 ], %l2
41004124:	80 a4 40 12 	cmp  %l1, %l2
41004128:	3a 80 00 0b 	bcc,a   41004154 <_Thread_queue_Enqueue_priority+0x1ac>
4100412c:	c2 06 20 30 	ld  [ %i0 + 0x30 ], %g1
41004130:	e0 04 20 04 	ld  [ %l0 + 4 ], %l0
41004134:	80 a4 00 13 	cmp  %l0, %l3
41004138:	22 80 00 07 	be,a   41004154 <_Thread_queue_Enqueue_priority+0x1ac>
4100413c:	c2 06 20 30 	ld  [ %i0 + 0x30 ], %g1
41004140:	e4 04 20 14 	ld  [ %l0 + 0x14 ], %l2
41004144:	80 a4 40 12 	cmp  %l1, %l2
41004148:	0a bf ff ea 	bcs  410040f0 <_Thread_queue_Enqueue_priority+0x148>
4100414c:	90 10 00 14 	mov  %l4, %o0
41004150:	c2 06 20 30 	ld  [ %i0 + 0x30 ], %g1
41004154:	80 a0 60 01 	cmp  %g1, 1
41004158:	12 bf ff ca 	bne  41004080 <_Thread_queue_Enqueue_priority+0xd8>
4100415c:	80 a0 60 02 	cmp  %g1, 2
41004160:	80 a4 40 12 	cmp  %l1, %l2
41004164:	02 80 00 2f 	be  41004220 <_Thread_queue_Enqueue_priority+0x278>
41004168:	c0 26 20 30 	clr  [ %i0 + 0x30 ]
4100416c:	c2 04 00 00 	ld  [ %l0 ], %g1
41004170:	e0 26 60 04 	st  %l0, [ %i1 + 4 ]
41004174:	c2 26 40 00 	st  %g1, [ %i1 ]
41004178:	f0 26 60 4c 	st  %i0, [ %i1 + 0x4c ]
4100417c:	f2 24 00 00 	st  %i1, [ %l0 ]
41004180:	f2 20 60 04 	st  %i1, [ %g1 + 4 ]
41004184:	40 00 08 22 	call  4100620c <xky_sparc_enable_interrupts>
41004188:	91 e8 00 14 	restore  %g0, %l4, %o0
4100418c:	c4 06 60 78 	ld  [ %i1 + 0x78 ], %g2
41004190:	80 a0 a0 02 	cmp  %g2, 2
41004194:	22 80 00 12 	be,a   410041dc <_Thread_queue_Enqueue_priority+0x234>
41004198:	c2 26 60 78 	st  %g1, [ %i1 + 0x78 ]
4100419c:	40 00 08 1c 	call  4100620c <xky_sparc_enable_interrupts>
410041a0:	b0 10 00 19 	mov  %i1, %i0
410041a4:	33 04 00 ff 	sethi  %hi(0x1003fc00), %i1
410041a8:	b2 16 63 f8 	or  %i1, 0x3f8, %i1	! 1003fff8 <RAM_SIZE+0xfc3fff8>
410041ac:	7f ff fd 33 	call  41003678 <_Thread_Clear_state>
410041b0:	81 e8 00 00 	restore 
410041b4:	c2 06 60 4c 	ld  [ %i1 + 0x4c ], %g1
410041b8:	c0 26 60 4c 	clr  [ %i1 + 0x4c ]
410041bc:	c2 00 60 3c 	ld  [ %g1 + 0x3c ], %g1
410041c0:	c2 26 60 3c 	st  %g1, [ %i1 + 0x3c ]
410041c4:	40 00 08 12 	call  4100620c <xky_sparc_enable_interrupts>
410041c8:	b0 10 00 19 	mov  %i1, %i0
410041cc:	33 04 00 ff 	sethi  %hi(0x1003fc00), %i1
410041d0:	b2 16 63 f8 	or  %i1, 0x3f8, %i1	! 1003fff8 <RAM_SIZE+0xfc3fff8>
410041d4:	7f ff fd 29 	call  41003678 <_Thread_Clear_state>
410041d8:	81 e8 00 00 	restore 
410041dc:	c0 26 60 4c 	clr  [ %i1 + 0x4c ]
410041e0:	40 00 08 0b 	call  4100620c <xky_sparc_enable_interrupts>
410041e4:	b0 10 00 19 	mov  %i1, %i0
410041e8:	7f ff f7 62 	call  41001f70 <_Watchdog_Remove>
410041ec:	90 06 60 70 	add  %i1, 0x70, %o0
410041f0:	10 bf ff aa 	b  41004098 <_Thread_queue_Enqueue_priority+0xf0>
410041f4:	33 04 00 ff 	sethi  %hi(0x1003fc00), %i1
410041f8:	02 80 00 0a 	be  41004220 <_Thread_queue_Enqueue_priority+0x278>
410041fc:	c0 26 20 30 	clr  [ %i0 + 0x30 ]
41004200:	c2 04 20 04 	ld  [ %l0 + 4 ], %g1
41004204:	e0 26 40 00 	st  %l0, [ %i1 ]
41004208:	c2 26 60 04 	st  %g1, [ %i1 + 4 ]
4100420c:	f0 26 60 4c 	st  %i0, [ %i1 + 0x4c ]
41004210:	f2 20 40 00 	st  %i1, [ %g1 ]
41004214:	f2 24 20 04 	st  %i1, [ %l0 + 4 ]
41004218:	40 00 07 fd 	call  4100620c <xky_sparc_enable_interrupts>
4100421c:	91 e8 00 16 	restore  %g0, %l6, %o0
41004220:	a0 04 20 44 	add  %l0, 0x44, %l0
41004224:	c2 04 20 04 	ld  [ %l0 + 4 ], %g1
41004228:	e0 26 40 00 	st  %l0, [ %i1 ]
4100422c:	c2 26 60 04 	st  %g1, [ %i1 + 4 ]
41004230:	f0 26 60 4c 	st  %i0, [ %i1 + 0x4c ]
41004234:	f2 20 40 00 	st  %i1, [ %g1 ]
41004238:	f2 24 20 04 	st  %i1, [ %l0 + 4 ]
4100423c:	40 00 07 f4 	call  4100620c <xky_sparc_enable_interrupts>
41004240:	91 e8 00 08 	restore  %g0, %o0, %o0
41004244:	40 00 07 f2 	call  4100620c <xky_sparc_enable_interrupts>
41004248:	90 10 00 16 	mov  %l6, %o0
4100424c:	30 bf ff 67 	b,a   41003fe8 <_Thread_queue_Enqueue_priority+0x40>
41004250:	10 bf ff 88 	b  41004070 <_Thread_queue_Enqueue_priority+0xc8>
41004254:	c2 06 20 30 	ld  [ %i0 + 0x30 ], %g1

41004258 <_Message_queue_Manager_initialization>:
41004258:	9d e3 bf 98 	save  %sp, -104, %sp
4100425c:	82 10 20 04 	mov  4, %g1
41004260:	96 10 00 18 	mov  %i0, %o3
41004264:	c2 23 a0 5c 	st  %g1, [ %sp + 0x5c ]
41004268:	11 10 40 2a 	sethi  %hi(0x4100a800), %o0
4100426c:	92 10 20 02 	mov  2, %o1
41004270:	90 12 23 10 	or  %o0, 0x310, %o0
41004274:	94 10 20 04 	mov  4, %o2
41004278:	98 10 20 88 	mov  0x88, %o4
4100427c:	7f ff f2 ef 	call  41000e38 <_Objects_Initialize_information>
41004280:	9a 10 20 00 	clr  %o5
41004284:	81 c7 e0 08 	ret 
41004288:	81 e8 00 00 	restore 

4100428c <_Rate_monotonic_Manager_initialization>:
4100428c:	9d e3 bf 98 	save  %sp, -104, %sp
41004290:	82 10 20 04 	mov  4, %g1
41004294:	96 10 00 18 	mov  %i0, %o3
41004298:	c2 23 a0 5c 	st  %g1, [ %sp + 0x5c ]
4100429c:	11 10 40 2a 	sethi  %hi(0x4100a800), %o0
410042a0:	92 10 20 02 	mov  2, %o1
410042a4:	90 12 23 58 	or  %o0, 0x358, %o0
410042a8:	94 10 20 08 	mov  8, %o2
410042ac:	98 10 20 44 	mov  0x44, %o4
410042b0:	7f ff f2 e2 	call  41000e38 <_Objects_Initialize_information>
410042b4:	9a 10 20 00 	clr  %o5
410042b8:	81 c7 e0 08 	ret 
410042bc:	81 e8 00 00 	restore 

410042c0 <_Semaphore_Manager_initialization>:
410042c0:	9d e3 bf 98 	save  %sp, -104, %sp
410042c4:	82 10 20 04 	mov  4, %g1
410042c8:	96 10 00 18 	mov  %i0, %o3
410042cc:	c2 23 a0 5c 	st  %g1, [ %sp + 0x5c ]
410042d0:	11 10 40 2a 	sethi  %hi(0x4100a800), %o0
410042d4:	92 10 20 02 	mov  2, %o1
410042d8:	90 12 23 a0 	or  %o0, 0x3a0, %o0
410042dc:	94 10 20 03 	mov  3, %o2
410042e0:	98 10 20 84 	mov  0x84, %o4
410042e4:	7f ff f2 d5 	call  41000e38 <_Objects_Initialize_information>
410042e8:	9a 10 20 00 	clr  %o5
410042ec:	81 c7 e0 08 	ret 
410042f0:	81 e8 00 00 	restore 

410042f4 <_Timer_Manager_initialization>:
410042f4:	9d e3 bf 98 	save  %sp, -104, %sp
410042f8:	82 10 20 04 	mov  4, %g1
410042fc:	96 10 00 18 	mov  %i0, %o3
41004300:	c2 23 a0 5c 	st  %g1, [ %sp + 0x5c ]
41004304:	11 10 40 2a 	sethi  %hi(0x4100a800), %o0
41004308:	92 10 20 02 	mov  2, %o1
4100430c:	90 12 23 f4 	or  %o0, 0x3f4, %o0
41004310:	94 10 20 02 	mov  2, %o2
41004314:	98 10 20 3c 	mov  0x3c, %o4
41004318:	7f ff f2 c8 	call  41000e38 <_Objects_Initialize_information>
4100431c:	9a 10 20 00 	clr  %o5
41004320:	03 10 40 19 	sethi  %hi(0x41006400), %g1
41004324:	c0 20 63 a0 	clr  [ %g1 + 0x3a0 ]	! 410067a0 <_Timer_Server>
41004328:	81 c7 e0 08 	ret 
4100432c:	81 e8 00 00 	restore 

41004330 <_Event_Manager_initialization>:
41004330:	81 c3 e0 08 	retl 
41004334:	01 00 00 00 	nop 

41004338 <boot_card>:
41004338:	9d e3 bf a0 	save  %sp, -96, %sp
4100433c:	03 10 40 2b 	sethi  %hi(0x4100ac00), %g1
41004340:	82 10 60 68 	or  %g1, 0x68, %g1	! 4100ac68 <trap_table>
41004344:	90 10 00 01 	mov  %g1, %o0
41004348:	84 00 64 00 	add  %g1, 0x400, %g2
4100434c:	c0 20 40 00 	clr  [ %g1 ]
41004350:	82 00 60 04 	add  %g1, 4, %g1
41004354:	80 a0 40 02 	cmp  %g1, %g2
41004358:	32 bf ff fe 	bne,a   41004350 <boot_card+0x18>
4100435c:	c0 20 40 00 	clr  [ %g1 ]
41004360:	40 00 07 c3 	call  4100626c <xky_sparc_set_tbr>
41004364:	23 10 40 19 	sethi  %hi(0x41006400), %l1
41004368:	40 00 07 b1 	call  4100622c <xky_sparc_enable_traps>
4100436c:	21 10 40 2c 	sethi  %hi(0x4100b000), %l0
41004370:	03 00 00 04 	sethi  %hi(0x1000), %g1
41004374:	90 14 62 88 	or  %l1, 0x288, %o0
41004378:	c0 24 20 68 	clr  [ %l0 + 0x68 ]
4100437c:	a0 14 20 68 	or  %l0, 0x68, %l0
41004380:	c2 24 20 18 	st  %g1, [ %l0 + 0x18 ]
41004384:	c0 24 20 04 	clr  [ %l0 + 4 ]
41004388:	c0 24 20 08 	clr  [ %l0 + 8 ]
4100438c:	c0 24 20 0c 	clr  [ %l0 + 0xc ]
41004390:	c0 24 20 10 	clr  [ %l0 + 0x10 ]
41004394:	c0 24 20 1c 	clr  [ %l0 + 0x1c ]
41004398:	7f ff f0 bd 	call  4100068c <rtems_check_configuration_parameters>
4100439c:	c0 24 20 20 	clr  [ %l0 + 0x20 ]
410043a0:	e4 04 62 88 	ld  [ %l1 + 0x288 ], %l2
410043a4:	a2 14 62 88 	or  %l1, 0x288, %l1
410043a8:	c4 04 60 28 	ld  [ %l1 + 0x28 ], %g2
410043ac:	c2 04 60 24 	ld  [ %l1 + 0x24 ], %g1
410043b0:	c6 00 80 00 	ld  [ %g2 ], %g3
410043b4:	de 04 60 04 	ld  [ %l1 + 4 ], %o7
410043b8:	d4 04 60 10 	ld  [ %l1 + 0x10 ], %o2
410043bc:	d6 04 60 14 	ld  [ %l1 + 0x14 ], %o3
410043c0:	d8 04 60 18 	ld  [ %l1 + 0x18 ], %o4
410043c4:	da 04 60 1c 	ld  [ %l1 + 0x1c ], %o5
410043c8:	c8 04 60 20 	ld  [ %l1 + 0x20 ], %g4
410043cc:	d0 04 60 08 	ld  [ %l1 + 8 ], %o0
410043d0:	d2 04 60 0c 	ld  [ %l1 + 0xc ], %o1
410043d4:	23 10 40 2c 	sethi  %hi(0x4100b000), %l1
410043d8:	e4 24 60 8c 	st  %l2, [ %l1 + 0x8c ]	! 4100b08c <BSP_Configuration>
410043dc:	a2 14 60 8c 	or  %l1, 0x8c, %l1
410043e0:	c2 24 60 24 	st  %g1, [ %l1 + 0x24 ]
410043e4:	03 10 40 2b 	sethi  %hi(0x4100ac00), %g1
410043e8:	c6 20 60 48 	st  %g3, [ %g1 + 0x48 ]	! 4100ac48 <BSP_RTEMS_Configuration>
410043ec:	c6 00 a0 04 	ld  [ %g2 + 4 ], %g3
410043f0:	82 10 60 48 	or  %g1, 0x48, %g1
410043f4:	c6 20 60 04 	st  %g3, [ %g1 + 4 ]
410043f8:	c6 00 a0 08 	ld  [ %g2 + 8 ], %g3
410043fc:	c6 20 60 08 	st  %g3, [ %g1 + 8 ]
41004400:	c6 00 a0 0c 	ld  [ %g2 + 0xc ], %g3
41004404:	c6 20 60 0c 	st  %g3, [ %g1 + 0xc ]
41004408:	c6 00 a0 10 	ld  [ %g2 + 0x10 ], %g3
4100440c:	de 24 60 04 	st  %o7, [ %l1 + 4 ]
41004410:	c6 20 60 10 	st  %g3, [ %g1 + 0x10 ]
41004414:	d0 24 60 08 	st  %o0, [ %l1 + 8 ]
41004418:	c6 00 a0 14 	ld  [ %g2 + 0x14 ], %g3
4100441c:	d2 24 60 0c 	st  %o1, [ %l1 + 0xc ]
41004420:	c6 20 60 14 	st  %g3, [ %g1 + 0x14 ]
41004424:	d4 24 60 10 	st  %o2, [ %l1 + 0x10 ]
41004428:	d6 24 60 14 	st  %o3, [ %l1 + 0x14 ]
4100442c:	d8 24 60 18 	st  %o4, [ %l1 + 0x18 ]
41004430:	da 24 60 1c 	st  %o5, [ %l1 + 0x1c ]
41004434:	c8 24 60 20 	st  %g4, [ %l1 + 0x20 ]
41004438:	c4 00 a0 18 	ld  [ %g2 + 0x18 ], %g2
4100443c:	c4 20 60 18 	st  %g2, [ %g1 + 0x18 ]
41004440:	40 00 00 0d 	call  41004474 <bsp_start>
41004444:	c2 24 60 28 	st  %g1, [ %l1 + 0x28 ]
41004448:	90 10 00 11 	mov  %l1, %o0
4100444c:	7f ff f0 ff 	call  41000848 <rtems_initialize_executive_early>
41004450:	92 10 00 10 	mov  %l0, %o1
41004454:	03 10 40 2b 	sethi  %hi(0x4100ac00), %g1
41004458:	b0 10 20 00 	clr  %i0
4100445c:	7f ff f0 84 	call  4100066c <rtems_initialize_executive_late>
41004460:	d0 20 60 64 	st  %o0, [ %g1 + 0x64 ]
41004464:	81 c7 e0 08 	ret 
41004468:	81 e8 00 00 	restore 

4100446c <bsp_pretasking_hook>:
4100446c:	81 c3 e0 08 	retl 
41004470:	01 00 00 00 	nop 

41004474 <bsp_start>:
41004474:	9d e3 bf a0 	save  %sp, -96, %sp
41004478:	05 10 40 11 	sethi  %hi(0x41004400), %g2
4100447c:	84 10 a0 6c 	or  %g2, 0x6c, %g2	! 4100446c <bsp_pretasking_hook>
41004480:	03 10 40 2c 	sethi  %hi(0x4100b000), %g1
41004484:	c4 20 60 68 	st  %g2, [ %g1 + 0x68 ]	! 4100b068 <Cpu_table>
41004488:	05 10 40 12 	sethi  %hi(0x41004800), %g2
4100448c:	84 10 a2 bc 	or  %g2, 0x2bc, %g2	! 41004abc <bsp_postdriver_hook>
41004490:	82 10 60 68 	or  %g1, 0x68, %g1
41004494:	c4 20 60 08 	st  %g2, [ %g1 + 8 ]
41004498:	05 10 40 11 	sethi  %hi(0x41004400), %g2
4100449c:	84 10 a2 24 	or  %g2, 0x224, %g2	! 41004624 <bsp_leon3_predriver_hook>
410044a0:	c4 20 60 04 	st  %g2, [ %g1 + 4 ]
410044a4:	05 00 00 10 	sethi  %hi(0x4000), %g2
410044a8:	c4 20 60 18 	st  %g2, [ %g1 + 0x18 ]
410044ac:	03 10 40 00 	sethi  %hi(0x41000000), %g1
410044b0:	e4 00 60 58 	ld  [ %g1 + 0x58 ], %l2	! 41000058 <rdb_start>
410044b4:	03 3f ff d0 	sethi  %hi(0xffff4000), %g1
410044b8:	23 10 40 2c 	sethi  %hi(0x4100b000), %l1
410044bc:	a4 04 80 01 	add  %l2, %g1, %l2
410044c0:	a0 14 60 8c 	or  %l1, 0x8c, %l0
410044c4:	c2 04 20 04 	ld  [ %l0 + 4 ], %g1
410044c8:	a4 24 80 01 	sub  %l2, %g1, %l2
410044cc:	03 10 40 2c 	sethi  %hi(0x4100b000), %g1
410044d0:	82 10 61 f8 	or  %g1, 0x1f8, %g1	! 4100b1f8 <__end>
410044d4:	80 a4 80 01 	cmp  %l2, %g1
410044d8:	08 80 00 08 	bleu  410044f8 <bsp_start+0x84>
410044dc:	27 10 40 19 	sethi  %hi(0x41006400), %l3
410044e0:	40 00 06 e7 	call  4100607c <xky_syscall_get_us_per_tick>
410044e4:	01 00 00 00 	nop 
410044e8:	e4 24 60 8c 	st  %l2, [ %l1 + 0x8c ]
410044ec:	d2 24 20 0c 	st  %o1, [ %l0 + 0xc ]
410044f0:	81 c7 e0 08 	ret 
410044f4:	81 e8 00 00 	restore 
410044f8:	40 00 07 41 	call  410061fc <xky_sparc_disable_interrupts>
410044fc:	ea 04 e3 90 	ld  [ %l3 + 0x390 ], %l5
41004500:	a8 10 00 08 	mov  %o0, %l4
41004504:	82 10 20 04 	mov  4, %g1
41004508:	c2 24 e3 90 	st  %g1, [ %l3 + 0x390 ]
4100450c:	90 10 20 00 	clr  %o0
41004510:	92 10 20 01 	mov  1, %o1
41004514:	7f ff ef 19 	call  41000178 <app_safe_state_handler>
41004518:	94 10 20 1c 	mov  0x1c, %o2
4100451c:	80 a2 20 00 	cmp  %o0, 0
41004520:	02 bf ff fc 	be  41004510 <bsp_start+0x9c>
41004524:	90 10 20 00 	clr  %o0
41004528:	ea 24 e3 90 	st  %l5, [ %l3 + 0x390 ]
4100452c:	40 00 07 38 	call  4100620c <xky_sparc_enable_interrupts>
41004530:	90 10 00 14 	mov  %l4, %o0
41004534:	40 00 06 d2 	call  4100607c <xky_syscall_get_us_per_tick>
41004538:	01 00 00 00 	nop 
4100453c:	e4 24 60 8c 	st  %l2, [ %l1 + 0x8c ]
41004540:	d2 24 20 0c 	st  %o1, [ %l0 + 0xc ]
41004544:	81 c7 e0 08 	ret 
41004548:	81 e8 00 00 	restore 

4100454c <rtems_cache_invalidate_entire_instruction>:
4100454c:	82 13 c0 00 	mov  %o7, %g1
41004550:	40 00 01 5d 	call  41004ac4 <_CPU_cache_invalidate_entire_instruction>
41004554:	9e 10 40 00 	mov  %g1, %o7
41004558:	01 00 00 00 	nop 

4100455c <Clock_initialize>:
4100455c:	9d e3 bf 90 	save  %sp, -112, %sp
41004560:	03 10 40 2c 	sethi  %hi(0x4100b000), %g1
41004564:	c0 20 60 c0 	clr  [ %g1 + 0xc0 ]	! 4100b0c0 <Clock_driver_ticks>
41004568:	c0 20 60 c4 	clr  [ %g1 + 0xc4 ]
4100456c:	11 10 40 2c 	sethi  %hi(0x4100b000), %o0
41004570:	92 10 20 01 	mov  1, %o1
41004574:	90 12 20 c8 	or  %o0, 0xc8, %o0
41004578:	94 10 20 11 	mov  0x11, %o2
4100457c:	96 07 bf f4 	add  %fp, -12, %o3
41004580:	40 00 01 24 	call  41004a10 <amba_find_apbslv>
41004584:	a0 10 00 18 	mov  %i0, %l0
41004588:	80 a2 20 00 	cmp  %o0, 0
4100458c:	04 80 00 09 	ble  410045b0 <Clock_initialize+0x54>
41004590:	c2 07 bf f4 	ld  [ %fp + -12 ], %g1
41004594:	07 10 40 29 	sethi  %hi(0x4100a400), %g3
41004598:	c4 00 60 08 	ld  [ %g1 + 8 ], %g2
4100459c:	c2 20 e3 a8 	st  %g1, [ %g3 + 0x3a8 ]
410045a0:	84 08 a0 fc 	and  %g2, 0xfc, %g2
410045a4:	03 10 40 2c 	sethi  %hi(0x4100b000), %g1
410045a8:	85 30 a0 03 	srl  %g2, 3, %g2
410045ac:	c4 20 61 e8 	st  %g2, [ %g1 + 0x1e8 ]
410045b0:	11 10 40 11 	sethi  %hi(0x41004400), %o0
410045b4:	13 10 40 2c 	sethi  %hi(0x4100b000), %o1
410045b8:	90 12 21 e8 	or  %o0, 0x1e8, %o0
410045bc:	40 00 01 68 	call  41004b5c <Clock_driver_support_install_isr>
410045c0:	92 12 60 bc 	or  %o1, 0xbc, %o1
410045c4:	11 10 40 12 	sethi  %hi(0x41004800), %o0
410045c8:	40 00 01 b7 	call  41004ca4 <rtems_clock_set_nanoseconds_extension>
410045cc:	90 12 22 f8 	or  %o0, 0x2f8, %o0	! 41004af8 <Clock_driver_nanoseconds_since_last_tick>
410045d0:	03 10 40 19 	sethi  %hi(0x41006400), %g1
410045d4:	e0 20 63 1c 	st  %l0, [ %g1 + 0x31c ]	! 4100671c <rtems_clock_major>
410045d8:	03 10 40 2c 	sethi  %hi(0x4100b000), %g1
410045dc:	f2 20 60 b8 	st  %i1, [ %g1 + 0xb8 ]	! 4100b0b8 <rtems_clock_minor>
410045e0:	81 c7 e0 08 	ret 
410045e4:	91 e8 20 00 	restore  %g0, 0, %o0

410045e8 <Clock_isr>:
410045e8:	9d e3 bf a0 	save  %sp, -96, %sp
410045ec:	40 00 06 a8 	call  4100608c <xky_syscall_get_elapsed_ticks>
410045f0:	01 00 00 00 	nop 
410045f4:	03 10 40 2c 	sethi  %hi(0x4100b000), %g1
410045f8:	c4 18 60 c0 	ldd  [ %g1 + 0xc0 ], %g2	! 4100b0c0 <Clock_driver_ticks>
410045fc:	d8 18 60 c0 	ldd  [ %g1 + 0xc0 ], %o4
41004600:	86 a2 40 03 	subcc  %o1, %g3, %g3
41004604:	84 62 00 02 	subx  %o0, %g2, %g2
41004608:	b0 10 00 03 	mov  %g3, %i0
4100460c:	86 80 c0 0d 	addcc  %g3, %o5, %g3
41004610:	84 40 80 0c 	addx  %g2, %o4, %g2
41004614:	c4 38 60 c0 	std  %g2, [ %g1 + 0xc0 ]
41004618:	40 00 01 e9 	call  41004dbc <rtems_clock_update>
4100461c:	81 e8 00 00 	restore 
41004620:	01 00 00 00 	nop 

41004624 <bsp_leon3_predriver_hook>:
41004624:	9d e3 bf 90 	save  %sp, -112, %sp
41004628:	21 10 40 2c 	sethi  %hi(0x4100b000), %l0
4100462c:	13 3f fc 00 	sethi  %hi(0xfff00000), %o1
41004630:	90 14 20 c8 	or  %l0, 0xc8, %o0
41004634:	40 00 00 64 	call  410047c4 <amba_scan>
41004638:	94 10 20 00 	clr  %o2
4100463c:	a2 07 bf f4 	add  %fp, -12, %l1
41004640:	90 14 20 c8 	or  %l0, 0xc8, %o0
41004644:	92 10 20 01 	mov  1, %o1
41004648:	94 10 20 0d 	mov  0xd, %o2
4100464c:	40 00 00 f1 	call  41004a10 <amba_find_apbslv>
41004650:	96 10 00 11 	mov  %l1, %o3
41004654:	80 a2 20 00 	cmp  %o0, 0
41004658:	04 80 00 05 	ble  4100466c <bsp_leon3_predriver_hook+0x48>
4100465c:	c4 07 bf f4 	ld  [ %fp + -12 ], %g2
41004660:	03 10 40 2c 	sethi  %hi(0x4100b000), %g1
41004664:	40 00 01 62 	call  41004bec <bsp_spurious_initialize>
41004668:	c4 20 61 e4 	st  %g2, [ %g1 + 0x1e4 ]	! 4100b1e4 <LEON3_IrqCtrl_Regs>
4100466c:	90 14 20 c8 	or  %l0, 0xc8, %o0
41004670:	96 10 00 11 	mov  %l1, %o3
41004674:	92 10 20 01 	mov  1, %o1
41004678:	40 00 00 e6 	call  41004a10 <amba_find_apbslv>
4100467c:	94 10 20 11 	mov  0x11, %o2
41004680:	80 a2 20 00 	cmp  %o0, 0
41004684:	04 80 00 04 	ble  41004694 <bsp_leon3_predriver_hook+0x70>
41004688:	c4 07 bf f4 	ld  [ %fp + -12 ], %g2
4100468c:	03 10 40 29 	sethi  %hi(0x4100a400), %g1
41004690:	c4 20 63 a8 	st  %g2, [ %g1 + 0x3a8 ]	! 4100a7a8 <LEON3_Timer_Regs>
41004694:	81 c7 e0 08 	ret 
41004698:	81 e8 00 00 	restore 

4100469c <amba_addr_from>:
4100469c:	82 92 20 00 	orcc  %o0, 0, %g1
410046a0:	02 80 00 15 	be  410046f4 <amba_addr_from+0x58>
410046a4:	01 00 00 00 	nop 
410046a8:	c4 00 60 04 	ld  [ %g1 + 4 ], %g2
410046ac:	80 a0 a0 00 	cmp  %g2, 0
410046b0:	22 80 00 11 	be,a   410046f4 <amba_addr_from+0x58>
410046b4:	92 10 20 01 	mov  1, %o1
410046b8:	c6 00 60 08 	ld  [ %g1 + 8 ], %g3
410046bc:	80 a2 40 03 	cmp  %o1, %g3
410046c0:	2a 80 00 08 	bcs,a   410046e0 <amba_addr_from+0x44>
410046c4:	82 00 60 0c 	add  %g1, 0xc, %g1
410046c8:	88 00 ff ff 	add  %g3, -1, %g4
410046cc:	84 01 00 02 	add  %g4, %g2, %g2
410046d0:	80 a2 40 02 	cmp  %o1, %g2
410046d4:	28 80 00 0a 	bleu,a   410046fc <amba_addr_from+0x60>
410046d8:	c2 00 40 00 	ld  [ %g1 ], %g1
410046dc:	82 00 60 0c 	add  %g1, 0xc, %g1
410046e0:	c4 00 60 04 	ld  [ %g1 + 4 ], %g2
410046e4:	80 a0 a0 00 	cmp  %g2, 0
410046e8:	32 bf ff f5 	bne,a   410046bc <amba_addr_from+0x20>
410046ec:	c6 00 60 08 	ld  [ %g1 + 8 ], %g3
410046f0:	92 10 20 01 	mov  1, %o1
410046f4:	81 c3 e0 08 	retl 
410046f8:	90 10 00 09 	mov  %o1, %o0
410046fc:	92 02 40 01 	add  %o1, %g1, %o1
41004700:	92 22 40 03 	sub  %o1, %g3, %o1
41004704:	81 c3 e0 08 	retl 
41004708:	90 10 00 09 	mov  %o1, %o0

4100470c <amba_scan_bridge>:
4100470c:	03 00 03 fc 	sethi  %hi(0xff000), %g1
41004710:	82 12 40 01 	or  %o1, %g1, %g1
41004714:	10 80 00 10 	b  41004754 <amba_scan_bridge+0x48>
41004718:	86 00 67 e0 	add  %g1, 0x7e0, %g3
4100471c:	80 a0 a0 00 	cmp  %g2, 0
41004720:	02 80 00 0b 	be  4100474c <amba_scan_bridge+0x40>
41004724:	80 a0 40 03 	cmp  %g1, %g3
41004728:	c4 02 20 10 	ld  [ %o0 + 0x10 ], %g2
4100472c:	84 00 a0 04 	add  %g2, 4, %g2
41004730:	85 28 a0 02 	sll  %g2, 2, %g2
41004734:	84 02 00 02 	add  %o0, %g2, %g2
41004738:	c2 20 a0 04 	st  %g1, [ %g2 + 4 ]
4100473c:	c4 02 20 10 	ld  [ %o0 + 0x10 ], %g2
41004740:	84 00 a0 01 	inc  %g2
41004744:	c4 22 20 10 	st  %g2, [ %o0 + 0x10 ]
41004748:	80 a0 40 03 	cmp  %g1, %g3
4100474c:	02 80 00 06 	be  41004764 <amba_scan_bridge+0x58>
41004750:	82 00 60 20 	add  %g1, 0x20, %g1
41004754:	c4 02 20 10 	ld  [ %o0 + 0x10 ], %g2
41004758:	80 a0 a0 0f 	cmp  %g2, 0xf
4100475c:	24 bf ff f0 	ble,a   4100471c <amba_scan_bridge+0x10>
41004760:	c4 00 40 00 	ld  [ %g1 ], %g2
41004764:	03 00 03 fe 	sethi  %hi(0xff800), %g1
41004768:	92 12 40 01 	or  %o1, %g1, %o1
4100476c:	10 80 00 10 	b  410047ac <amba_scan_bridge+0xa0>
41004770:	84 02 67 e0 	add  %o1, 0x7e0, %g2
41004774:	80 a0 60 00 	cmp  %g1, 0
41004778:	02 80 00 0b 	be  410047a4 <amba_scan_bridge+0x98>
4100477c:	80 a2 40 02 	cmp  %o1, %g2
41004780:	c2 02 20 54 	ld  [ %o0 + 0x54 ], %g1
41004784:	82 00 60 14 	add  %g1, 0x14, %g1
41004788:	83 28 60 02 	sll  %g1, 2, %g1
4100478c:	82 02 00 01 	add  %o0, %g1, %g1
41004790:	d2 20 60 08 	st  %o1, [ %g1 + 8 ]
41004794:	c2 02 20 54 	ld  [ %o0 + 0x54 ], %g1
41004798:	82 00 60 01 	inc  %g1
4100479c:	c2 22 20 54 	st  %g1, [ %o0 + 0x54 ]
410047a0:	80 a2 40 02 	cmp  %o1, %g2
410047a4:	02 80 00 06 	be  410047bc <amba_scan_bridge+0xb0>
410047a8:	92 02 60 20 	add  %o1, 0x20, %o1
410047ac:	c2 02 20 54 	ld  [ %o0 + 0x54 ], %g1
410047b0:	80 a0 60 0f 	cmp  %g1, 0xf
410047b4:	24 bf ff f0 	ble,a   41004774 <amba_scan_bridge+0x68>
410047b8:	c2 02 40 00 	ld  [ %o1 ], %g1
410047bc:	81 c3 e0 08 	retl 
410047c0:	01 00 00 00 	nop 

410047c4 <amba_scan>:
410047c4:	9d e3 bf a0 	save  %sp, -96, %sp
410047c8:	c0 26 20 10 	clr  [ %i0 + 0x10 ]
410047cc:	c2 06 20 04 	ld  [ %i0 + 4 ], %g1
410047d0:	c0 26 20 54 	clr  [ %i0 + 0x54 ]
410047d4:	80 a0 00 01 	cmp  %g0, %g1
410047d8:	c0 26 20 98 	clr  [ %i0 + 0x98 ]
410047dc:	86 40 3f ff 	addx  %g0, -1, %g3
410047e0:	03 00 03 fc 	sethi  %hi(0xff000), %g1
410047e4:	86 08 e0 30 	and  %g3, 0x30, %g3
410047e8:	f2 26 20 08 	st  %i1, [ %i0 + 8 ]
410047ec:	f4 26 20 0c 	st  %i2, [ %i0 + 0xc ]
410047f0:	86 00 e0 10 	add  %g3, 0x10, %g3
410047f4:	82 16 40 01 	or  %i1, %g1, %g1
410047f8:	84 10 20 00 	clr  %g2
410047fc:	c8 00 40 00 	ld  [ %g1 ], %g4
41004800:	80 a1 20 00 	cmp  %g4, 0
41004804:	02 80 00 0a 	be  4100482c <amba_scan+0x68>
41004808:	84 00 a0 01 	inc  %g2
4100480c:	c8 06 20 10 	ld  [ %i0 + 0x10 ], %g4
41004810:	88 01 20 04 	add  %g4, 4, %g4
41004814:	89 29 20 02 	sll  %g4, 2, %g4
41004818:	88 06 00 04 	add  %i0, %g4, %g4
4100481c:	c2 21 20 04 	st  %g1, [ %g4 + 4 ]
41004820:	c8 06 20 10 	ld  [ %i0 + 0x10 ], %g4
41004824:	88 01 20 01 	inc  %g4
41004828:	c8 26 20 10 	st  %g4, [ %i0 + 0x10 ]
4100482c:	80 a0 c0 02 	cmp  %g3, %g2
41004830:	34 bf ff f3 	bg,a   410047fc <amba_scan+0x38>
41004834:	82 00 60 20 	add  %g1, 0x20, %g1
41004838:	03 00 03 fe 	sethi  %hi(0xff800), %g1
4100483c:	b2 16 40 01 	or  %i1, %g1, %i1
41004840:	82 10 20 00 	clr  %g1
41004844:	c4 06 40 00 	ld  [ %i1 ], %g2
41004848:	80 a0 a0 00 	cmp  %g2, 0
4100484c:	02 80 00 0a 	be  41004874 <amba_scan+0xb0>
41004850:	82 00 60 01 	inc  %g1
41004854:	c4 06 20 54 	ld  [ %i0 + 0x54 ], %g2
41004858:	84 00 a0 14 	add  %g2, 0x14, %g2
4100485c:	85 28 a0 02 	sll  %g2, 2, %g2
41004860:	84 06 00 02 	add  %i0, %g2, %g2
41004864:	f2 20 a0 08 	st  %i1, [ %g2 + 8 ]
41004868:	c4 06 20 54 	ld  [ %i0 + 0x54 ], %g2
4100486c:	84 00 a0 01 	inc  %g2
41004870:	c4 26 20 54 	st  %g2, [ %i0 + 0x54 ]
41004874:	80 a0 c0 01 	cmp  %g3, %g1
41004878:	34 bf ff f3 	bg,a   41004844 <amba_scan+0x80>
4100487c:	b2 06 60 20 	add  %i1, 0x20, %i1
41004880:	c2 06 20 54 	ld  [ %i0 + 0x54 ], %g1
41004884:	80 a0 60 00 	cmp  %g1, 0
41004888:	04 80 00 57 	ble  410049e4 <amba_scan+0x220>
4100488c:	25 00 00 3f 	sethi  %hi(0xfc00), %l2
41004890:	a2 10 00 18 	mov  %i0, %l1
41004894:	a4 14 a3 f0 	or  %l2, 0x3f0, %l2
41004898:	a0 10 20 00 	clr  %l0
4100489c:	10 80 00 07 	b  410048b8 <amba_scan+0xf4>
410048a0:	27 00 03 fc 	sethi  %hi(0xff000), %l3
410048a4:	c2 06 20 54 	ld  [ %i0 + 0x54 ], %g1
410048a8:	a0 04 20 01 	inc  %l0
410048ac:	80 a0 40 10 	cmp  %g1, %l0
410048b0:	04 80 00 4d 	ble  410049e4 <amba_scan+0x220>
410048b4:	a2 04 60 04 	add  %l1, 4, %l1
410048b8:	c2 04 60 58 	ld  [ %l1 + 0x58 ], %g1
410048bc:	c4 00 40 00 	ld  [ %g1 ], %g2
410048c0:	87 30 a0 18 	srl  %g2, 0x18, %g3
410048c4:	80 a0 e0 01 	cmp  %g3, 1
410048c8:	12 bf ff f7 	bne  410048a4 <amba_scan+0xe0>
410048cc:	da 00 60 10 	ld  [ %g1 + 0x10 ], %o5
410048d0:	87 30 a0 0c 	srl  %g2, 0xc, %g3
410048d4:	86 08 ef ff 	and  %g3, 0xfff, %g3
410048d8:	80 a0 e0 20 	cmp  %g3, 0x20
410048dc:	02 80 00 44 	be  410049ec <amba_scan+0x228>
410048e0:	80 a0 e0 06 	cmp  %g3, 6
410048e4:	12 bf ff f0 	bne  410048a4 <amba_scan+0xe0>
410048e8:	88 0b 40 12 	and  %o5, %l2, %g4
410048ec:	80 a6 a0 00 	cmp  %i2, 0
410048f0:	89 29 20 10 	sll  %g4, 0x10, %g4
410048f4:	02 80 00 18 	be  41004954 <amba_scan+0x190>
410048f8:	88 0b 40 04 	and  %o5, %g4, %g4
410048fc:	c4 06 a0 04 	ld  [ %i2 + 4 ], %g2
41004900:	80 a0 a0 00 	cmp  %g2, 0
41004904:	02 bf ff e8 	be  410048a4 <amba_scan+0xe0>
41004908:	82 10 00 1a 	mov  %i2, %g1
4100490c:	10 80 00 07 	b  41004928 <amba_scan+0x164>
41004910:	c6 00 60 08 	ld  [ %g1 + 8 ], %g3
41004914:	c4 00 60 04 	ld  [ %g1 + 4 ], %g2
41004918:	80 a0 a0 00 	cmp  %g2, 0
4100491c:	02 bf ff e2 	be  410048a4 <amba_scan+0xe0>
41004920:	01 00 00 00 	nop 
41004924:	c6 00 60 08 	ld  [ %g1 + 8 ], %g3
41004928:	80 a1 00 03 	cmp  %g4, %g3
4100492c:	2a bf ff fa 	bcs,a   41004914 <amba_scan+0x150>
41004930:	82 00 60 0c 	add  %g1, 0xc, %g1
41004934:	9a 00 ff ff 	add  %g3, -1, %o5
41004938:	84 03 40 02 	add  %o5, %g2, %g2
4100493c:	80 a1 00 02 	cmp  %g4, %g2
41004940:	38 bf ff f5 	bgu,a   41004914 <amba_scan+0x150>
41004944:	82 00 60 0c 	add  %g1, 0xc, %g1
41004948:	c2 00 40 00 	ld  [ %g1 ], %g1
4100494c:	88 01 00 01 	add  %g4, %g1, %g4
41004950:	88 21 00 03 	sub  %g4, %g3, %g4
41004954:	80 a1 20 01 	cmp  %g4, 1
41004958:	02 bf ff d3 	be  410048a4 <amba_scan+0xe0>
4100495c:	01 00 00 00 	nop 
41004960:	c2 06 20 98 	ld  [ %i0 + 0x98 ], %g1
41004964:	80 a0 60 0f 	cmp  %g1, 0xf
41004968:	14 bf ff cf 	bg  410048a4 <amba_scan+0xe0>
4100496c:	82 11 00 13 	or  %g4, %l3, %g1
41004970:	86 00 60 78 	add  %g1, 0x78, %g3
41004974:	c4 00 40 00 	ld  [ %g1 ], %g2
41004978:	80 a0 a0 00 	cmp  %g2, 0
4100497c:	02 80 00 0f 	be  410049b8 <amba_scan+0x1f4>
41004980:	01 00 00 00 	nop 
41004984:	c4 06 20 98 	ld  [ %i0 + 0x98 ], %g2
41004988:	84 00 a0 26 	add  %g2, 0x26, %g2
4100498c:	85 28 a0 02 	sll  %g2, 2, %g2
41004990:	84 06 00 02 	add  %i0, %g2, %g2
41004994:	c2 20 a0 04 	st  %g1, [ %g2 + 4 ]
41004998:	c4 06 20 98 	ld  [ %i0 + 0x98 ], %g2
4100499c:	84 00 a0 36 	add  %g2, 0x36, %g2
410049a0:	85 28 a0 02 	sll  %g2, 2, %g2
410049a4:	84 06 00 02 	add  %i0, %g2, %g2
410049a8:	c8 20 a0 04 	st  %g4, [ %g2 + 4 ]
410049ac:	c4 06 20 98 	ld  [ %i0 + 0x98 ], %g2
410049b0:	84 00 a0 01 	inc  %g2
410049b4:	c4 26 20 98 	st  %g2, [ %i0 + 0x98 ]
410049b8:	c4 06 20 98 	ld  [ %i0 + 0x98 ], %g2
410049bc:	80 a0 a0 0f 	cmp  %g2, 0xf
410049c0:	14 bf ff b9 	bg  410048a4 <amba_scan+0xe0>
410049c4:	80 a0 40 03 	cmp  %g1, %g3
410049c8:	12 bf ff eb 	bne  41004974 <amba_scan+0x1b0>
410049cc:	82 00 60 08 	add  %g1, 8, %g1
410049d0:	c2 06 20 54 	ld  [ %i0 + 0x54 ], %g1
410049d4:	a0 04 20 01 	inc  %l0
410049d8:	80 a0 40 10 	cmp  %g1, %l0
410049dc:	14 bf ff b7 	bg  410048b8 <amba_scan+0xf4>
410049e0:	a2 04 60 04 	add  %l1, 4, %l1
410049e4:	81 c7 e0 08 	ret 
410049e8:	81 e8 00 00 	restore 
410049ec:	80 88 a3 e0 	btst  0x3e0, %g2
410049f0:	02 bf ff ad 	be  410048a4 <amba_scan+0xe0>
410049f4:	d2 00 60 08 	ld  [ %g1 + 8 ], %o1
410049f8:	80 a2 60 00 	cmp  %o1, 0
410049fc:	02 bf ff aa 	be  410048a4 <amba_scan+0xe0>
41004a00:	01 00 00 00 	nop 
41004a04:	7f ff ff 42 	call  4100470c <amba_scan_bridge>
41004a08:	90 10 00 18 	mov  %i0, %o0
41004a0c:	30 bf ff a6 	b,a   410048a4 <amba_scan+0xe0>

41004a10 <amba_find_apbslv>:
41004a10:	9d e3 bf a0 	save  %sp, -96, %sp
41004a14:	c2 06 20 98 	ld  [ %i0 + 0x98 ], %g1
41004a18:	80 a0 60 00 	cmp  %g1, 0
41004a1c:	04 80 00 26 	ble  41004ab4 <amba_find_apbslv+0xa4>
41004a20:	82 10 00 18 	mov  %i0, %g1
41004a24:	10 80 00 07 	b  41004a40 <amba_find_apbslv+0x30>
41004a28:	84 10 20 00 	clr  %g2
41004a2c:	c6 06 20 98 	ld  [ %i0 + 0x98 ], %g3
41004a30:	84 00 a0 01 	inc  %g2
41004a34:	80 a0 c0 02 	cmp  %g3, %g2
41004a38:	04 80 00 1f 	ble  41004ab4 <amba_find_apbslv+0xa4>
41004a3c:	01 00 00 00 	nop 
41004a40:	c8 00 60 9c 	ld  [ %g1 + 0x9c ], %g4
41004a44:	c6 01 00 00 	ld  [ %g4 ], %g3
41004a48:	9b 30 e0 18 	srl  %g3, 0x18, %o5
41004a4c:	80 a3 40 19 	cmp  %o5, %i1
41004a50:	12 bf ff f7 	bne  41004a2c <amba_find_apbslv+0x1c>
41004a54:	82 00 60 04 	add  %g1, 4, %g1
41004a58:	9b 30 e0 0c 	srl  %g3, 0xc, %o5
41004a5c:	9a 0b 6f ff 	and  %o5, 0xfff, %o5
41004a60:	80 a3 40 1a 	cmp  %o5, %i2
41004a64:	12 bf ff f2 	bne  41004a2c <amba_find_apbslv+0x1c>
41004a68:	86 08 e0 1f 	and  %g3, 0x1f, %g3
41004a6c:	84 00 a0 36 	add  %g2, 0x36, %g2
41004a70:	85 28 a0 02 	sll  %g2, 2, %g2
41004a74:	b0 06 00 02 	add  %i0, %g2, %i0
41004a78:	c2 01 20 04 	ld  [ %g4 + 4 ], %g1
41004a7c:	c4 06 20 04 	ld  [ %i0 + 4 ], %g2
41004a80:	09 3f fc 00 	sethi  %hi(0xfff00000), %g4
41004a84:	c6 26 e0 04 	st  %g3, [ %i3 + 4 ]
41004a88:	07 00 00 3f 	sethi  %hi(0xfc00), %g3
41004a8c:	86 10 e3 f0 	or  %g3, 0x3f0, %g3	! fff0 <PROM_START+0xfff0>
41004a90:	86 08 40 03 	and  %g1, %g3, %g3
41004a94:	82 08 40 04 	and  %g1, %g4, %g1
41004a98:	87 28 e0 04 	sll  %g3, 4, %g3
41004a9c:	83 30 60 0c 	srl  %g1, 0xc, %g1
41004aa0:	82 08 c0 01 	and  %g3, %g1, %g1
41004aa4:	82 10 40 02 	or  %g1, %g2, %g1
41004aa8:	c2 26 c0 00 	st  %g1, [ %i3 ]
41004aac:	81 c7 e0 08 	ret 
41004ab0:	91 e8 20 01 	restore  %g0, 1, %o0
41004ab4:	81 c7 e0 08 	ret 
41004ab8:	91 e8 20 00 	restore  %g0, 0, %o0

41004abc <bsp_postdriver_hook>:
41004abc:	81 c3 e0 08 	retl 
41004ac0:	01 00 00 00 	nop 

41004ac4 <_CPU_cache_invalidate_entire_instruction>:
41004ac4:	81 d8 20 00 	flush  %g0
41004ac8:	81 c3 e0 08 	retl 
41004acc:	01 00 00 00 	nop 

41004ad0 <Clock_driver_support_initialize_hardware>:
41004ad0:	03 10 40 29 	sethi  %hi(0x4100a400), %g1
41004ad4:	05 10 40 2c 	sethi  %hi(0x4100b000), %g2
41004ad8:	c2 00 63 a8 	ld  [ %g1 + 0x3a8 ], %g1
41004adc:	c4 00 a0 98 	ld  [ %g2 + 0x98 ], %g2
41004ae0:	84 00 bf ff 	add  %g2, -1, %g2
41004ae4:	c4 20 60 14 	st  %g2, [ %g1 + 0x14 ]
41004ae8:	84 10 20 0f 	mov  0xf, %g2
41004aec:	c4 20 60 18 	st  %g2, [ %g1 + 0x18 ]
41004af0:	81 c3 e0 08 	retl 
41004af4:	01 00 00 00 	nop 

41004af8 <Clock_driver_nanoseconds_since_last_tick>:
41004af8:	03 10 40 29 	sethi  %hi(0x4100a400), %g1
41004afc:	c2 00 63 a8 	ld  [ %g1 + 0x3a8 ], %g1	! 4100a7a8 <LEON3_Timer_Regs>
41004b00:	80 a0 60 00 	cmp  %g1, 0
41004b04:	02 80 00 14 	be  41004b54 <Clock_driver_nanoseconds_since_last_tick+0x5c>
41004b08:	90 10 20 00 	clr  %o0
41004b0c:	d0 00 60 10 	ld  [ %g1 + 0x10 ], %o0
41004b10:	03 10 40 2c 	sethi  %hi(0x4100b000), %g1
41004b14:	c2 00 61 e4 	ld  [ %g1 + 0x1e4 ], %g1	! 4100b1e4 <LEON3_IrqCtrl_Regs>
41004b18:	c4 00 60 04 	ld  [ %g1 + 4 ], %g2
41004b1c:	07 10 40 2c 	sethi  %hi(0x4100b000), %g3
41004b20:	03 10 40 2c 	sethi  %hi(0x4100b000), %g1
41004b24:	c6 00 e1 e8 	ld  [ %g3 + 0x1e8 ], %g3
41004b28:	c2 00 60 98 	ld  [ %g1 + 0x98 ], %g1
41004b2c:	88 10 20 01 	mov  1, %g4
41004b30:	87 29 00 03 	sll  %g4, %g3, %g3
41004b34:	80 88 c0 02 	btst  %g3, %g2
41004b38:	02 80 00 06 	be  41004b50 <Clock_driver_nanoseconds_since_last_tick+0x58>
41004b3c:	90 20 40 08 	sub  %g1, %o0, %o0
41004b40:	85 30 60 01 	srl  %g1, 1, %g2
41004b44:	80 a2 00 02 	cmp  %o0, %g2
41004b48:	2a 80 00 02 	bcs,a   41004b50 <Clock_driver_nanoseconds_since_last_tick+0x58>
41004b4c:	90 02 00 01 	add  %o0, %g1, %o0
41004b50:	90 5a 23 e8 	smul  %o0, 0x3e8, %o0
41004b54:	81 c3 e0 08 	retl 
41004b58:	01 00 00 00 	nop 

41004b5c <Clock_driver_support_install_isr>:
41004b5c:	9d e3 bf a0 	save  %sp, -96, %sp
41004b60:	03 10 40 2c 	sethi  %hi(0x4100b000), %g1
41004b64:	90 10 00 18 	mov  %i0, %o0
41004b68:	d2 00 61 e8 	ld  [ %g1 + 0x1e8 ], %o1
41004b6c:	40 00 00 05 	call  41004b80 <set_vector>
41004b70:	92 02 60 10 	add  %o1, 0x10, %o1
41004b74:	d0 26 40 00 	st  %o0, [ %i1 ]
41004b78:	81 c7 e0 08 	ret 
41004b7c:	81 e8 00 00 	restore 

41004b80 <set_vector>:
41004b80:	9d e3 bf 98 	save  %sp, -104, %sp
41004b84:	92 10 00 19 	mov  %i1, %o1
41004b88:	90 10 00 18 	mov  %i0, %o0
41004b8c:	7f ff ed b1 	call  41000250 <rtems_interrupt_catch>
41004b90:	94 07 bf fc 	add  %fp, -4, %o2
41004b94:	b2 0e 60 ff 	and  %i1, 0xff, %i1
41004b98:	82 06 7f ef 	add  %i1, -17, %g1
41004b9c:	80 a0 60 0e 	cmp  %g1, 0xe
41004ba0:	38 80 00 11 	bgu,a   41004be4 <set_vector+0x64>
41004ba4:	f0 07 bf fc 	ld  [ %fp + -4 ], %i0
41004ba8:	82 10 20 01 	mov  1, %g1
41004bac:	21 10 40 2c 	sethi  %hi(0x4100b000), %l0
41004bb0:	b2 06 7f f0 	add  %i1, -16, %i1
41004bb4:	b3 28 40 19 	sll  %g1, %i1, %i1
41004bb8:	c2 04 21 e4 	ld  [ %l0 + 0x1e4 ], %g1
41004bbc:	f2 20 60 0c 	st  %i1, [ %g1 + 0xc ]
41004bc0:	40 00 05 8f 	call  410061fc <xky_sparc_disable_interrupts>
41004bc4:	01 00 00 00 	nop 
41004bc8:	c2 04 21 e4 	ld  [ %l0 + 0x1e4 ], %g1
41004bcc:	c4 00 60 40 	ld  [ %g1 + 0x40 ], %g2
41004bd0:	b2 16 40 02 	or  %i1, %g2, %i1
41004bd4:	f2 20 60 40 	st  %i1, [ %g1 + 0x40 ]
41004bd8:	40 00 05 8d 	call  4100620c <xky_sparc_enable_interrupts>
41004bdc:	01 00 00 00 	nop 
41004be0:	f0 07 bf fc 	ld  [ %fp + -4 ], %i0
41004be4:	81 c7 e0 08 	ret 
41004be8:	81 e8 00 00 	restore 

41004bec <bsp_spurious_initialize>:
41004bec:	9d e3 bf 98 	save  %sp, -104, %sp
41004bf0:	40 00 05 83 	call  410061fc <xky_sparc_disable_interrupts>
41004bf4:	23 10 40 13 	sethi  %hi(0x41004c00), %l1
41004bf8:	a0 10 20 00 	clr  %l0
41004bfc:	a4 07 bf fc 	add  %fp, -4, %l2
41004c00:	a6 10 00 08 	mov  %o0, %l3
41004c04:	10 80 00 09 	b  41004c28 <bsp_spurious_initialize+0x3c>
41004c08:	a2 14 60 88 	or  %l1, 0x88, %l1
41004c0c:	80 a0 60 10 	cmp  %g1, 0x10
41004c10:	18 80 00 16 	bgu  41004c68 <bsp_spurious_initialize+0x7c>
41004c14:	82 04 3f fb 	add  %l0, -5, %g1
41004c18:	a0 04 20 01 	inc  %l0
41004c1c:	80 a4 21 00 	cmp  %l0, 0x100
41004c20:	02 80 00 0e 	be  41004c58 <bsp_spurious_initialize+0x6c>
41004c24:	01 00 00 00 	nop 
41004c28:	82 04 3f ef 	add  %l0, -17, %g1
41004c2c:	80 a0 60 0e 	cmp  %g1, 0xe
41004c30:	18 bf ff f7 	bgu  41004c0c <bsp_spurious_initialize+0x20>
41004c34:	82 04 3f 90 	add  %l0, -112, %g1
41004c38:	90 10 00 10 	mov  %l0, %o0
41004c3c:	92 10 00 11 	mov  %l1, %o1
41004c40:	7f ff f5 6c 	call  410021f0 <_CPU_ISR_install_vector>
41004c44:	94 10 00 12 	mov  %l2, %o2
41004c48:	a0 04 20 01 	inc  %l0
41004c4c:	80 a4 21 00 	cmp  %l0, 0x100
41004c50:	12 bf ff f7 	bne  41004c2c <bsp_spurious_initialize+0x40>
41004c54:	82 04 3f ef 	add  %l0, -17, %g1
41004c58:	40 00 05 6d 	call  4100620c <xky_sparc_enable_interrupts>
41004c5c:	90 10 00 13 	mov  %l3, %o0
41004c60:	81 c7 e0 08 	ret 
41004c64:	81 e8 00 00 	restore 
41004c68:	80 a0 60 01 	cmp  %g1, 1
41004c6c:	28 bf ff ec 	bleu,a   41004c1c <bsp_spurious_initialize+0x30>
41004c70:	a0 04 20 01 	inc  %l0
41004c74:	92 04 21 00 	add  %l0, 0x100, %o1
41004c78:	7f ff ff c2 	call  41004b80 <set_vector>
41004c7c:	90 10 00 11 	mov  %l1, %o0
41004c80:	10 bf ff e7 	b  41004c1c <bsp_spurious_initialize+0x30>
41004c84:	a0 04 20 01 	inc  %l0

41004c88 <bsp_spurious_handler>:
41004c88:	94 0a 20 ff 	and  %o0, 0xff, %o2
41004c8c:	92 10 20 01 	mov  1, %o1
41004c90:	90 10 20 02 	mov  2, %o0
41004c94:	82 13 c0 00 	mov  %o7, %g1
41004c98:	7f ff f0 02 	call  41000ca0 <_Internal_error_Occurred>
41004c9c:	9e 10 40 00 	mov  %g1, %o7
41004ca0:	01 00 00 00 	nop 

41004ca4 <rtems_clock_set_nanoseconds_extension>:
41004ca4:	80 a2 20 00 	cmp  %o0, 0
41004ca8:	02 80 00 05 	be  41004cbc <rtems_clock_set_nanoseconds_extension+0x18>
41004cac:	82 10 20 09 	mov  9, %g1
41004cb0:	03 10 40 2a 	sethi  %hi(0x4100a800), %g1
41004cb4:	d0 20 62 00 	st  %o0, [ %g1 + 0x200 ]	! 4100aa00 <_Watchdog_Nanoseconds_since_tick_handler>
41004cb8:	82 10 20 00 	clr  %g1
41004cbc:	81 c3 e0 08 	retl 
41004cc0:	90 10 00 01 	mov  %g1, %o0

41004cc4 <rtems_time_travel>:
41004cc4:	9d e3 bf 98 	save  %sp, -104, %sp
41004cc8:	03 10 40 2a 	sethi  %hi(0x4100a800), %g1
41004ccc:	c4 00 61 fc 	ld  [ %g1 + 0x1fc ], %g2	! 4100a9fc <_Watchdog_Ticks_since_boot>
41004cd0:	84 06 00 02 	add  %i0, %g2, %g2
41004cd4:	c4 20 61 fc 	st  %g2, [ %g1 + 0x1fc ]
41004cd8:	03 10 40 2a 	sethi  %hi(0x4100a800), %g1
41004cdc:	c2 00 60 ac 	ld  [ %g1 + 0xac ], %g1	! 4100a8ac <_TOD_Microseconds_per_tick>
41004ce0:	82 58 63 e8 	smul  %g1, 0x3e8, %g1
41004ce4:	82 58 40 18 	smul  %g1, %i0, %g1
41004ce8:	a0 07 bf f8 	add  %fp, -8, %l0
41004cec:	c2 27 bf fc 	st  %g1, [ %fp + -4 ]
41004cf0:	92 10 00 10 	mov  %l0, %o1
41004cf4:	c0 27 bf f8 	clr  [ %fp + -8 ]
41004cf8:	11 10 40 2a 	sethi  %hi(0x4100a800), %o0
41004cfc:	40 00 00 79 	call  41004ee0 <_Timespec_Add_to>
41004d00:	90 12 20 9c 	or  %o0, 0x9c, %o0	! 4100a89c <_TOD_Uptime>
41004d04:	92 10 00 10 	mov  %l0, %o1
41004d08:	11 10 40 2a 	sethi  %hi(0x4100a800), %o0
41004d0c:	40 00 00 75 	call  41004ee0 <_Timespec_Add_to>
41004d10:	90 12 20 a4 	or  %o0, 0xa4, %o0	! 4100a8a4 <_TOD_Now>
41004d14:	94 10 00 18 	mov  %i0, %o2
41004d18:	a0 10 00 08 	mov  %o0, %l0
41004d1c:	92 10 20 00 	clr  %o1
41004d20:	11 10 40 2a 	sethi  %hi(0x4100a800), %o0
41004d24:	40 00 00 88 	call  41004f44 <_Watchdog_Adjust>
41004d28:	90 12 21 ec 	or  %o0, 0x1ec, %o0	! 4100a9ec <_Watchdog_Ticks_chain>
41004d2c:	80 a4 20 00 	cmp  %l0, 0
41004d30:	02 80 00 08 	be  41004d50 <rtems_time_travel+0x8c>
41004d34:	84 10 20 01 	mov  1, %g2
41004d38:	11 10 40 2a 	sethi  %hi(0x4100a800), %o0
41004d3c:	94 10 00 10 	mov  %l0, %o2
41004d40:	90 12 21 e0 	or  %o0, 0x1e0, %o0
41004d44:	40 00 00 80 	call  41004f44 <_Watchdog_Adjust>
41004d48:	92 10 20 00 	clr  %o1
41004d4c:	84 10 20 01 	mov  1, %g2
41004d50:	03 10 40 2a 	sethi  %hi(0x4100a800), %g1
41004d54:	c4 20 61 c0 	st  %g2, [ %g1 + 0x1c0 ]	! 4100a9c0 <_Context_Switch_necessary>
41004d58:	81 c7 e0 08 	ret 
41004d5c:	81 e8 00 00 	restore 

41004d60 <rtems_clock_tick>:
41004d60:	9d e3 bf a0 	save  %sp, -96, %sp
41004d64:	40 00 00 21 	call  41004de8 <_TOD_Tickle_ticks>
41004d68:	01 00 00 00 	nop 
41004d6c:	11 10 40 2a 	sethi  %hi(0x4100a800), %o0
41004d70:	40 00 00 ad 	call  41005024 <_Watchdog_Tickle>
41004d74:	90 12 21 ec 	or  %o0, 0x1ec, %o0	! 4100a9ec <_Watchdog_Ticks_chain>
41004d78:	40 00 00 3a 	call  41004e60 <_Thread_Tickle_timeslice>
41004d7c:	01 00 00 00 	nop 
41004d80:	03 10 40 2a 	sethi  %hi(0x4100a800), %g1
41004d84:	c2 00 61 c0 	ld  [ %g1 + 0x1c0 ], %g1	! 4100a9c0 <_Context_Switch_necessary>
41004d88:	80 a0 60 00 	cmp  %g1, 0
41004d8c:	02 80 00 06 	be  41004da4 <rtems_clock_tick+0x44>
41004d90:	03 10 40 2a 	sethi  %hi(0x4100a800), %g1
41004d94:	c2 00 61 68 	ld  [ %g1 + 0x168 ], %g1	! 4100a968 <_Thread_Dispatch_disable_level>
41004d98:	80 a0 60 00 	cmp  %g1, 0
41004d9c:	02 80 00 04 	be  41004dac <rtems_clock_tick+0x4c>
41004da0:	01 00 00 00 	nop 
41004da4:	81 c7 e0 08 	ret 
41004da8:	91 e8 20 00 	restore  %g0, 0, %o0
41004dac:	7f ff f1 26 	call  41001244 <_Thread_Dispatch>
41004db0:	b0 10 20 00 	clr  %i0
41004db4:	81 c7 e0 08 	ret 
41004db8:	81 e8 00 00 	restore 

41004dbc <rtems_clock_update>:
41004dbc:	9d e3 bf a0 	save  %sp, -96, %sp
41004dc0:	80 a6 20 01 	cmp  %i0, 1
41004dc4:	02 80 00 06 	be  41004ddc <rtems_clock_update+0x20>
41004dc8:	01 00 00 00 	nop 
41004dcc:	7f ff ff be 	call  41004cc4 <rtems_time_travel>
41004dd0:	90 10 00 18 	mov  %i0, %o0
41004dd4:	81 c7 e0 08 	ret 
41004dd8:	81 e8 00 00 	restore 
41004ddc:	7f ff ff e1 	call  41004d60 <rtems_clock_tick>
41004de0:	81 e8 00 00 	restore 
41004de4:	01 00 00 00 	nop 

41004de8 <_TOD_Tickle_ticks>:
41004de8:	9d e3 bf 98 	save  %sp, -104, %sp
41004dec:	03 10 40 2a 	sethi  %hi(0x4100a800), %g1
41004df0:	c4 00 61 fc 	ld  [ %g1 + 0x1fc ], %g2	! 4100a9fc <_Watchdog_Ticks_since_boot>
41004df4:	84 00 a0 01 	inc  %g2
41004df8:	c4 20 61 fc 	st  %g2, [ %g1 + 0x1fc ]
41004dfc:	03 10 40 2a 	sethi  %hi(0x4100a800), %g1
41004e00:	c2 00 60 ac 	ld  [ %g1 + 0xac ], %g1	! 4100a8ac <_TOD_Microseconds_per_tick>
41004e04:	82 58 63 e8 	smul  %g1, 0x3e8, %g1
41004e08:	a0 07 bf f8 	add  %fp, -8, %l0
41004e0c:	c2 27 bf fc 	st  %g1, [ %fp + -4 ]
41004e10:	92 10 00 10 	mov  %l0, %o1
41004e14:	c0 27 bf f8 	clr  [ %fp + -8 ]
41004e18:	11 10 40 2a 	sethi  %hi(0x4100a800), %o0
41004e1c:	40 00 00 31 	call  41004ee0 <_Timespec_Add_to>
41004e20:	90 12 20 9c 	or  %o0, 0x9c, %o0	! 4100a89c <_TOD_Uptime>
41004e24:	92 10 00 10 	mov  %l0, %o1
41004e28:	11 10 40 2a 	sethi  %hi(0x4100a800), %o0
41004e2c:	40 00 00 2d 	call  41004ee0 <_Timespec_Add_to>
41004e30:	90 12 20 a4 	or  %o0, 0xa4, %o0	! 4100a8a4 <_TOD_Now>
41004e34:	a0 92 20 00 	orcc  %o0, 0, %l0
41004e38:	02 80 00 08 	be  41004e58 <_TOD_Tickle_ticks+0x70>
41004e3c:	23 10 40 2a 	sethi  %hi(0x4100a800), %l1
41004e40:	a2 14 61 e0 	or  %l1, 0x1e0, %l1	! 4100a9e0 <_Watchdog_Seconds_chain>
41004e44:	40 00 00 78 	call  41005024 <_Watchdog_Tickle>
41004e48:	90 10 00 11 	mov  %l1, %o0
41004e4c:	a0 84 3f ff 	addcc  %l0, -1, %l0
41004e50:	12 bf ff fd 	bne  41004e44 <_TOD_Tickle_ticks+0x5c>
41004e54:	01 00 00 00 	nop 
41004e58:	81 c7 e0 08 	ret 
41004e5c:	81 e8 00 00 	restore 

41004e60 <_Thread_Tickle_timeslice>:
41004e60:	9d e3 bf a0 	save  %sp, -96, %sp
41004e64:	03 10 40 19 	sethi  %hi(0x41006400), %g1
41004e68:	e0 00 63 94 	ld  [ %g1 + 0x394 ], %l0	! 41006794 <_Thread_Executing>
41004e6c:	c2 04 20 a0 	ld  [ %l0 + 0xa0 ], %g1
41004e70:	80 a0 60 00 	cmp  %g1, 0
41004e74:	02 80 00 19 	be  41004ed8 <_Thread_Tickle_timeslice+0x78>
41004e78:	01 00 00 00 	nop 
41004e7c:	c2 04 20 10 	ld  [ %l0 + 0x10 ], %g1
41004e80:	80 a0 60 00 	cmp  %g1, 0
41004e84:	12 80 00 15 	bne  41004ed8 <_Thread_Tickle_timeslice+0x78>
41004e88:	01 00 00 00 	nop 
41004e8c:	c2 04 20 ac 	ld  [ %l0 + 0xac ], %g1
41004e90:	80 a0 60 00 	cmp  %g1, 0
41004e94:	02 80 00 11 	be  41004ed8 <_Thread_Tickle_timeslice+0x78>
41004e98:	80 a0 60 01 	cmp  %g1, 1
41004e9c:	02 80 00 05 	be  41004eb0 <_Thread_Tickle_timeslice+0x50>
41004ea0:	b0 10 20 00 	clr  %i0
41004ea4:	b2 10 20 01 	mov  1, %i1
41004ea8:	7f ff ef 7e 	call  41000ca0 <_Internal_error_Occurred>
41004eac:	95 e8 20 26 	restore  %g0, 0x26, %o2
41004eb0:	c2 04 20 a8 	ld  [ %l0 + 0xa8 ], %g1
41004eb4:	82 00 7f ff 	add  %g1, -1, %g1
41004eb8:	80 a0 60 00 	cmp  %g1, 0
41004ebc:	14 80 00 07 	bg  41004ed8 <_Thread_Tickle_timeslice+0x78>
41004ec0:	c2 24 20 a8 	st  %g1, [ %l0 + 0xa8 ]
41004ec4:	40 00 00 89 	call  410050e8 <_Thread_Reset_timeslice>
41004ec8:	01 00 00 00 	nop 
41004ecc:	03 10 40 2a 	sethi  %hi(0x4100a800), %g1
41004ed0:	c2 00 60 dc 	ld  [ %g1 + 0xdc ], %g1	! 4100a8dc <_Thread_Ticks_per_timeslice>
41004ed4:	c2 24 20 a8 	st  %g1, [ %l0 + 0xa8 ]
41004ed8:	81 c7 e0 08 	ret 
41004edc:	81 e8 00 00 	restore 

41004ee0 <_Timespec_Add_to>:
41004ee0:	9d e3 bf a0 	save  %sp, -96, %sp
41004ee4:	82 10 00 18 	mov  %i0, %g1
41004ee8:	c8 06 60 04 	ld  [ %i1 + 4 ], %g4
41004eec:	f0 06 40 00 	ld  [ %i1 ], %i0
41004ef0:	c6 00 40 00 	ld  [ %g1 ], %g3
41004ef4:	c4 00 60 04 	ld  [ %g1 + 4 ], %g2
41004ef8:	86 00 c0 18 	add  %g3, %i0, %g3
41004efc:	84 01 00 02 	add  %g4, %g2, %g2
41004f00:	c6 20 40 00 	st  %g3, [ %g1 ]
41004f04:	1b 0e e6 b2 	sethi  %hi(0x3b9ac800), %o5
41004f08:	9a 13 61 ff 	or  %o5, 0x1ff, %o5	! 3b9ac9ff <RAM_SIZE+0x3b5ac9ff>
41004f0c:	80 a0 80 0d 	cmp  %g2, %o5
41004f10:	08 80 00 0b 	bleu  41004f3c <_Timespec_Add_to+0x5c>
41004f14:	c4 20 60 04 	st  %g2, [ %g1 + 4 ]
41004f18:	09 31 19 4d 	sethi  %hi(0xc4653400), %g4
41004f1c:	88 11 22 00 	or  %g4, 0x200, %g4	! c4653600 <LEON_REG+0x44653600>
41004f20:	84 00 80 04 	add  %g2, %g4, %g2
41004f24:	86 00 e0 01 	inc  %g3
41004f28:	80 a0 80 0d 	cmp  %g2, %o5
41004f2c:	18 bf ff fd 	bgu  41004f20 <_Timespec_Add_to+0x40>
41004f30:	b0 06 20 01 	inc  %i0
41004f34:	c6 20 40 00 	st  %g3, [ %g1 ]
41004f38:	c4 20 60 04 	st  %g2, [ %g1 + 4 ]
41004f3c:	81 c7 e0 08 	ret 
41004f40:	81 e8 00 00 	restore 

41004f44 <_Watchdog_Adjust>:
41004f44:	9d e3 bf a0 	save  %sp, -96, %sp
41004f48:	40 00 04 ad 	call  410061fc <xky_sparc_disable_interrupts>
41004f4c:	a0 10 00 18 	mov  %i0, %l0
41004f50:	b0 10 00 08 	mov  %o0, %i0
41004f54:	c2 04 00 00 	ld  [ %l0 ], %g1
41004f58:	a2 04 20 04 	add  %l0, 4, %l1
41004f5c:	80 a0 40 11 	cmp  %g1, %l1
41004f60:	02 80 00 1f 	be  41004fdc <_Watchdog_Adjust+0x98>
41004f64:	80 a6 60 00 	cmp  %i1, 0
41004f68:	12 80 00 1f 	bne  41004fe4 <_Watchdog_Adjust+0xa0>
41004f6c:	80 a6 60 01 	cmp  %i1, 1
41004f70:	80 a6 a0 00 	cmp  %i2, 0
41004f74:	02 80 00 1a 	be  41004fdc <_Watchdog_Adjust+0x98>
41004f78:	01 00 00 00 	nop 
41004f7c:	f2 00 60 10 	ld  [ %g1 + 0x10 ], %i1
41004f80:	80 a6 80 19 	cmp  %i2, %i1
41004f84:	1a 80 00 0a 	bcc  41004fac <_Watchdog_Adjust+0x68>
41004f88:	a4 10 20 01 	mov  1, %l2
41004f8c:	10 80 00 22 	b  41005014 <_Watchdog_Adjust+0xd0>
41004f90:	b4 26 40 1a 	sub  %i1, %i2, %i2
41004f94:	02 80 00 12 	be  41004fdc <_Watchdog_Adjust+0x98>
41004f98:	01 00 00 00 	nop 
41004f9c:	f2 00 60 10 	ld  [ %g1 + 0x10 ], %i1
41004fa0:	80 a6 40 1a 	cmp  %i1, %i2
41004fa4:	38 80 00 1c 	bgu,a   41005014 <_Watchdog_Adjust+0xd0>
41004fa8:	b4 26 40 1a 	sub  %i1, %i2, %i2
41004fac:	e4 20 60 10 	st  %l2, [ %g1 + 0x10 ]
41004fb0:	40 00 04 97 	call  4100620c <xky_sparc_enable_interrupts>
41004fb4:	90 10 00 18 	mov  %i0, %o0
41004fb8:	40 00 00 1b 	call  41005024 <_Watchdog_Tickle>
41004fbc:	90 10 00 10 	mov  %l0, %o0
41004fc0:	40 00 04 8f 	call  410061fc <xky_sparc_disable_interrupts>
41004fc4:	01 00 00 00 	nop 
41004fc8:	b0 10 00 08 	mov  %o0, %i0
41004fcc:	c2 04 00 00 	ld  [ %l0 ], %g1
41004fd0:	80 a4 40 01 	cmp  %l1, %g1
41004fd4:	32 bf ff f0 	bne,a   41004f94 <_Watchdog_Adjust+0x50>
41004fd8:	b4 a6 80 19 	subcc  %i2, %i1, %i2
41004fdc:	40 00 04 8c 	call  4100620c <xky_sparc_enable_interrupts>
41004fe0:	81 e8 00 00 	restore 
41004fe4:	02 80 00 07 	be  41005000 <_Watchdog_Adjust+0xbc>
41004fe8:	90 10 20 00 	clr  %o0
41004fec:	92 10 20 01 	mov  1, %o1
41004ff0:	7f ff ef 2c 	call  41000ca0 <_Internal_error_Occurred>
41004ff4:	94 10 20 27 	mov  0x27, %o2
41004ff8:	40 00 04 85 	call  4100620c <xky_sparc_enable_interrupts>
41004ffc:	81 e8 00 00 	restore 
41005000:	c4 00 60 10 	ld  [ %g1 + 0x10 ], %g2
41005004:	b4 00 80 1a 	add  %g2, %i2, %i2
41005008:	f4 20 60 10 	st  %i2, [ %g1 + 0x10 ]
4100500c:	40 00 04 80 	call  4100620c <xky_sparc_enable_interrupts>
41005010:	81 e8 00 00 	restore 
41005014:	f4 20 60 10 	st  %i2, [ %g1 + 0x10 ]
41005018:	40 00 04 7d 	call  4100620c <xky_sparc_enable_interrupts>
4100501c:	81 e8 00 00 	restore 
41005020:	01 00 00 00 	nop 

41005024 <_Watchdog_Tickle>:
41005024:	9d e3 bf a0 	save  %sp, -96, %sp
41005028:	40 00 04 75 	call  410061fc <xky_sparc_disable_interrupts>
4100502c:	a0 10 00 18 	mov  %i0, %l0
41005030:	b0 10 00 08 	mov  %o0, %i0
41005034:	e4 04 00 00 	ld  [ %l0 ], %l2
41005038:	a2 04 20 04 	add  %l0, 4, %l1
4100503c:	80 a4 80 11 	cmp  %l2, %l1
41005040:	02 80 00 09 	be  41005064 <_Watchdog_Tickle+0x40>
41005044:	01 00 00 00 	nop 
41005048:	c2 04 a0 10 	ld  [ %l2 + 0x10 ], %g1
4100504c:	80 a0 60 00 	cmp  %g1, 0
41005050:	02 80 00 19 	be  410050b4 <_Watchdog_Tickle+0x90>
41005054:	82 00 7f ff 	add  %g1, -1, %g1
41005058:	80 a0 60 00 	cmp  %g1, 0
4100505c:	02 80 00 16 	be  410050b4 <_Watchdog_Tickle+0x90>
41005060:	c2 24 a0 10 	st  %g1, [ %l2 + 0x10 ]
41005064:	40 00 04 6a 	call  4100620c <xky_sparc_enable_interrupts>
41005068:	81 e8 00 00 	restore 
4100506c:	0a 80 00 07 	bcs  41005088 <_Watchdog_Tickle+0x64>
41005070:	80 a4 e0 03 	cmp  %l3, 3
41005074:	02 80 00 05 	be  41005088 <_Watchdog_Tickle+0x64>
41005078:	92 10 20 01 	mov  1, %o1
4100507c:	94 10 20 28 	mov  0x28, %o2
41005080:	7f ff ef 08 	call  41000ca0 <_Internal_error_Occurred>
41005084:	90 10 20 00 	clr  %o0
41005088:	40 00 04 5d 	call  410061fc <xky_sparc_disable_interrupts>
4100508c:	01 00 00 00 	nop 
41005090:	b0 10 00 08 	mov  %o0, %i0
41005094:	e4 04 00 00 	ld  [ %l0 ], %l2
41005098:	80 a4 40 12 	cmp  %l1, %l2
4100509c:	02 bf ff f2 	be  41005064 <_Watchdog_Tickle+0x40>
410050a0:	01 00 00 00 	nop 
410050a4:	c2 04 a0 10 	ld  [ %l2 + 0x10 ], %g1
410050a8:	80 a0 60 00 	cmp  %g1, 0
410050ac:	12 bf ff ee 	bne  41005064 <_Watchdog_Tickle+0x40>
410050b0:	01 00 00 00 	nop 
410050b4:	7f ff f3 af 	call  41001f70 <_Watchdog_Remove>
410050b8:	90 10 00 12 	mov  %l2, %o0
410050bc:	a6 10 00 08 	mov  %o0, %l3
410050c0:	40 00 04 53 	call  4100620c <xky_sparc_enable_interrupts>
410050c4:	90 10 00 18 	mov  %i0, %o0
410050c8:	80 a4 e0 02 	cmp  %l3, 2
410050cc:	12 bf ff e8 	bne  4100506c <_Watchdog_Tickle+0x48>
410050d0:	01 00 00 00 	nop 
410050d4:	d2 04 a0 24 	ld  [ %l2 + 0x24 ], %o1
410050d8:	c2 04 a0 1c 	ld  [ %l2 + 0x1c ], %g1
410050dc:	9f c0 40 00 	call  %g1
410050e0:	d0 04 a0 20 	ld  [ %l2 + 0x20 ], %o0
410050e4:	30 bf ff e9 	b,a   41005088 <_Watchdog_Tickle+0x64>

410050e8 <_Thread_Reset_timeslice>:
410050e8:	9d e3 bf a0 	save  %sp, -96, %sp
410050ec:	03 10 40 19 	sethi  %hi(0x41006400), %g1
410050f0:	e0 00 63 94 	ld  [ %g1 + 0x394 ], %l0	! 41006794 <_Thread_Executing>
410050f4:	40 00 04 42 	call  410061fc <xky_sparc_disable_interrupts>
410050f8:	e2 04 20 b4 	ld  [ %l0 + 0xb4 ], %l1
410050fc:	b0 10 00 08 	mov  %o0, %i0
41005100:	c4 04 40 00 	ld  [ %l1 ], %g2
41005104:	c2 04 60 08 	ld  [ %l1 + 8 ], %g1
41005108:	80 a0 80 01 	cmp  %g2, %g1
4100510c:	02 80 00 18 	be  4100516c <_Thread_Reset_timeslice+0x84>
41005110:	01 00 00 00 	nop 
41005114:	c2 04 00 00 	ld  [ %l0 ], %g1
41005118:	c4 04 20 04 	ld  [ %l0 + 4 ], %g2
4100511c:	c2 20 80 00 	st  %g1, [ %g2 ]
41005120:	c4 20 60 04 	st  %g2, [ %g1 + 4 ]
41005124:	82 04 60 04 	add  %l1, 4, %g1
41005128:	c2 24 00 00 	st  %g1, [ %l0 ]
4100512c:	c2 04 60 08 	ld  [ %l1 + 8 ], %g1
41005130:	e0 24 60 08 	st  %l0, [ %l1 + 8 ]
41005134:	c2 24 20 04 	st  %g1, [ %l0 + 4 ]
41005138:	e0 20 40 00 	st  %l0, [ %g1 ]
4100513c:	40 00 04 34 	call  4100620c <xky_sparc_enable_interrupts>
41005140:	01 00 00 00 	nop 
41005144:	40 00 04 2e 	call  410061fc <xky_sparc_disable_interrupts>
41005148:	01 00 00 00 	nop 
4100514c:	03 10 40 19 	sethi  %hi(0x41006400), %g1
41005150:	c4 00 63 98 	ld  [ %g1 + 0x398 ], %g2	! 41006798 <_Thread_Heir>
41005154:	80 a4 00 02 	cmp  %l0, %g2
41005158:	22 80 00 07 	be,a   41005174 <_Thread_Reset_timeslice+0x8c>
4100515c:	c4 04 40 00 	ld  [ %l1 ], %g2
41005160:	84 10 20 01 	mov  1, %g2
41005164:	03 10 40 2a 	sethi  %hi(0x4100a800), %g1
41005168:	c4 20 61 c0 	st  %g2, [ %g1 + 0x1c0 ]	! 4100a9c0 <_Context_Switch_necessary>
4100516c:	40 00 04 28 	call  4100620c <xky_sparc_enable_interrupts>
41005170:	81 e8 00 00 	restore 
41005174:	10 bf ff fb 	b  41005160 <_Thread_Reset_timeslice+0x78>
41005178:	c4 20 63 98 	st  %g2, [ %g1 + 0x398 ]

4100517c <memcpy>:
4100517c:	9d e3 bf a0 	save  %sp, -96, %sp
41005180:	80 a6 a0 0f 	cmp  %i2, 0xf
41005184:	9a 10 00 18 	mov  %i0, %o5
41005188:	88 10 00 19 	mov  %i1, %g4
4100518c:	08 80 00 33 	bleu  41005258 <memcpy+0xdc>
41005190:	86 10 00 1a 	mov  %i2, %g3
41005194:	82 16 40 18 	or  %i1, %i0, %g1
41005198:	80 88 60 03 	btst  3, %g1
4100519c:	02 80 00 0b 	be  410051c8 <memcpy+0x4c>
410051a0:	84 10 00 19 	mov  %i1, %g2
410051a4:	82 10 20 00 	clr  %g1
410051a8:	c4 09 00 01 	ldub  [ %g4 + %g1 ], %g2
410051ac:	c4 2b 40 01 	stb  %g2, [ %o5 + %g1 ]
410051b0:	82 00 60 01 	inc  %g1
410051b4:	80 a0 40 03 	cmp  %g1, %g3
410051b8:	32 bf ff fd 	bne,a   410051ac <memcpy+0x30>
410051bc:	c4 09 00 01 	ldub  [ %g4 + %g1 ], %g2
410051c0:	81 c7 e0 08 	ret 
410051c4:	81 e8 00 00 	restore 
410051c8:	82 10 00 18 	mov  %i0, %g1
410051cc:	da 00 80 00 	ld  [ %g2 ], %o5
410051d0:	da 20 40 00 	st  %o5, [ %g1 ]
410051d4:	da 00 a0 04 	ld  [ %g2 + 4 ], %o5
410051d8:	da 20 60 04 	st  %o5, [ %g1 + 4 ]
410051dc:	da 00 a0 08 	ld  [ %g2 + 8 ], %o5
410051e0:	da 20 60 08 	st  %o5, [ %g1 + 8 ]
410051e4:	da 00 a0 0c 	ld  [ %g2 + 0xc ], %o5
410051e8:	da 20 60 0c 	st  %o5, [ %g1 + 0xc ]
410051ec:	86 00 ff f0 	add  %g3, -16, %g3
410051f0:	82 00 60 10 	add  %g1, 0x10, %g1
410051f4:	80 a0 e0 0f 	cmp  %g3, 0xf
410051f8:	18 bf ff f5 	bgu  410051cc <memcpy+0x50>
410051fc:	84 00 a0 10 	add  %g2, 0x10, %g2
41005200:	86 06 bf f0 	add  %i2, -16, %g3
41005204:	9a 08 ff f0 	and  %g3, -16, %o5
41005208:	86 08 e0 0f 	and  %g3, 0xf, %g3
4100520c:	9a 03 60 10 	add  %o5, 0x10, %o5
41005210:	80 a0 e0 03 	cmp  %g3, 3
41005214:	88 06 40 0d 	add  %i1, %o5, %g4
41005218:	08 80 00 10 	bleu  41005258 <memcpy+0xdc>
4100521c:	9a 06 00 0d 	add  %i0, %o5, %o5
41005220:	82 10 20 00 	clr  %g1
41005224:	c4 01 00 01 	ld  [ %g4 + %g1 ], %g2
41005228:	c4 23 40 01 	st  %g2, [ %o5 + %g1 ]
4100522c:	82 00 60 04 	add  %g1, 4, %g1
41005230:	84 20 c0 01 	sub  %g3, %g1, %g2
41005234:	80 a0 a0 03 	cmp  %g2, 3
41005238:	38 bf ff fc 	bgu,a   41005228 <memcpy+0xac>
4100523c:	c4 01 00 01 	ld  [ %g4 + %g1 ], %g2
41005240:	82 00 ff fc 	add  %g3, -4, %g1
41005244:	86 08 60 03 	and  %g1, 3, %g3
41005248:	82 08 7f fc 	and  %g1, -4, %g1
4100524c:	82 00 60 04 	add  %g1, 4, %g1
41005250:	88 01 00 01 	add  %g4, %g1, %g4
41005254:	9a 03 40 01 	add  %o5, %g1, %o5
41005258:	80 a0 e0 00 	cmp  %g3, 0
4100525c:	12 bf ff d3 	bne  410051a8 <memcpy+0x2c>
41005260:	82 10 20 00 	clr  %g1
41005264:	81 c7 e0 08 	ret 
41005268:	81 e8 00 00 	restore 

4100526c <memset>:
4100526c:	9d e3 bf a0 	save  %sp, -96, %sp
41005270:	86 0e 60 ff 	and  %i1, 0xff, %g3
41005274:	80 a6 a0 03 	cmp  %i2, 3
41005278:	08 80 00 2a 	bleu  41005320 <memset+0xb4>
4100527c:	84 10 00 18 	mov  %i0, %g2
41005280:	80 8e 20 03 	btst  3, %i0
41005284:	32 80 00 2a 	bne,a   4100532c <memset+0xc0>
41005288:	82 10 20 00 	clr  %g1
4100528c:	83 28 e0 08 	sll  %g3, 8, %g1
41005290:	82 10 40 03 	or  %g1, %g3, %g1
41005294:	80 a6 a0 0f 	cmp  %i2, 0xf
41005298:	85 28 60 10 	sll  %g1, 0x10, %g2
4100529c:	9a 10 00 18 	mov  %i0, %o5
410052a0:	84 10 80 01 	or  %g2, %g1, %g2
410052a4:	88 10 00 1a 	mov  %i2, %g4
410052a8:	08 80 00 11 	bleu  410052ec <memset+0x80>
410052ac:	82 10 00 18 	mov  %i0, %g1
410052b0:	c4 20 40 00 	st  %g2, [ %g1 ]
410052b4:	c4 20 60 04 	st  %g2, [ %g1 + 4 ]
410052b8:	c4 20 60 08 	st  %g2, [ %g1 + 8 ]
410052bc:	c4 20 60 0c 	st  %g2, [ %g1 + 0xc ]
410052c0:	88 01 3f f0 	add  %g4, -16, %g4
410052c4:	80 a1 20 0f 	cmp  %g4, 0xf
410052c8:	18 bf ff fa 	bgu  410052b0 <memset+0x44>
410052cc:	82 00 60 10 	add  %g1, 0x10, %g1
410052d0:	b4 06 bf f0 	add  %i2, -16, %i2
410052d4:	9a 0e bf f0 	and  %i2, -16, %o5
410052d8:	b4 0e a0 0f 	and  %i2, 0xf, %i2
410052dc:	9a 03 60 10 	add  %o5, 0x10, %o5
410052e0:	80 a6 a0 03 	cmp  %i2, 3
410052e4:	08 80 00 0e 	bleu  4100531c <memset+0xb0>
410052e8:	9a 06 00 0d 	add  %i0, %o5, %o5
410052ec:	82 10 20 00 	clr  %g1
410052f0:	c4 23 40 01 	st  %g2, [ %o5 + %g1 ]
410052f4:	82 00 60 04 	add  %g1, 4, %g1
410052f8:	88 26 80 01 	sub  %i2, %g1, %g4
410052fc:	80 a1 20 03 	cmp  %g4, 3
41005300:	38 bf ff fd 	bgu,a   410052f4 <memset+0x88>
41005304:	c4 23 40 01 	st  %g2, [ %o5 + %g1 ]
41005308:	82 06 bf fc 	add  %i2, -4, %g1
4100530c:	b4 08 60 03 	and  %g1, 3, %i2
41005310:	82 08 7f fc 	and  %g1, -4, %g1
41005314:	82 00 60 04 	add  %g1, 4, %g1
41005318:	9a 03 40 01 	add  %o5, %g1, %o5
4100531c:	84 10 00 0d 	mov  %o5, %g2
41005320:	80 a6 a0 00 	cmp  %i2, 0
41005324:	02 80 00 07 	be  41005340 <memset+0xd4>
41005328:	82 10 20 00 	clr  %g1
4100532c:	c6 28 80 01 	stb  %g3, [ %g2 + %g1 ]
41005330:	82 00 60 01 	inc  %g1
41005334:	80 a6 80 01 	cmp  %i2, %g1
41005338:	32 bf ff fe 	bne,a   41005330 <memset+0xc4>
4100533c:	c6 28 80 01 	stb  %g3, [ %g2 + %g1 ]
41005340:	81 c7 e0 08 	ret 
41005344:	81 e8 00 00 	restore 

41005348 <__divdi3>:
41005348:	9d e3 bf a0 	save  %sp, -96, %sp
4100534c:	80 a6 20 00 	cmp  %i0, 0
41005350:	06 80 00 5c 	bl  410054c0 <__divdi3+0x178>
41005354:	88 10 20 00 	clr  %g4
41005358:	80 a6 a0 00 	cmp  %i2, 0
4100535c:	26 80 00 5f 	bl,a   410054d8 <__divdi3+0x190>
41005360:	b6 a0 00 1b 	subcc  %g0, %i3, %i3
41005364:	84 10 00 1a 	mov  %i2, %g2
41005368:	86 10 00 18 	mov  %i0, %g3
4100536c:	80 a6 a0 00 	cmp  %i2, 0
41005370:	82 10 00 1b 	mov  %i3, %g1
41005374:	12 80 00 0e 	bne  410053ac <__divdi3+0x64>
41005378:	9a 10 00 19 	mov  %i1, %o5
4100537c:	80 a6 c0 18 	cmp  %i3, %i0
41005380:	08 80 00 1a 	bleu  410053e8 <__divdi3+0xa0>
41005384:	80 a6 e0 00 	cmp  %i3, 0
41005388:	81 86 00 00 	mov  %i0, %y
4100538c:	01 00 00 00 	nop 
41005390:	01 00 00 00 	nop 
41005394:	01 00 00 00 	nop 
41005398:	98 76 40 1b 	udiv  %i1, %i3, %o4
4100539c:	84 53 00 1b 	umul  %o4, %i3, %g2
410053a0:	84 26 40 02 	sub  %i1, %g2, %g2
410053a4:	10 80 00 07 	b  410053c0 <__divdi3+0x78>
410053a8:	82 10 20 00 	clr  %g1
410053ac:	80 a6 80 18 	cmp  %i2, %i0
410053b0:	08 80 00 26 	bleu  41005448 <__divdi3+0x100>
410053b4:	19 00 00 3f 	sethi  %hi(0xfc00), %o4
410053b8:	98 10 20 00 	clr  %o4
410053bc:	82 10 20 00 	clr  %g1
410053c0:	80 a1 20 00 	cmp  %g4, 0
410053c4:	84 10 00 01 	mov  %g1, %g2
410053c8:	02 80 00 04 	be  410053d8 <__divdi3+0x90>
410053cc:	86 10 00 0c 	mov  %o4, %g3
410053d0:	86 a0 00 0c 	subcc  %g0, %o4, %g3
410053d4:	84 60 00 01 	subx  %g0, %g1, %g2
410053d8:	b2 10 00 03 	mov  %g3, %i1
410053dc:	b0 10 00 02 	mov  %g2, %i0
410053e0:	81 c7 e0 08 	ret 
410053e4:	81 e8 00 00 	restore 
410053e8:	12 80 00 08 	bne  41005408 <__divdi3+0xc0>
410053ec:	98 10 20 00 	clr  %o4
410053f0:	84 10 20 01 	mov  1, %g2
410053f4:	81 80 20 00 	mov  %g0, %y
410053f8:	01 00 00 00 	nop 
410053fc:	01 00 00 00 	nop 
41005400:	01 00 00 00 	nop 
41005404:	82 70 a0 00 	udiv  %g2, 0, %g1
41005408:	81 83 00 00 	mov  %o4, %y
4100540c:	01 00 00 00 	nop 
41005410:	01 00 00 00 	nop 
41005414:	01 00 00 00 	nop 
41005418:	96 70 c0 01 	udiv  %g3, %g1, %o3
4100541c:	84 52 c0 01 	umul  %o3, %g1, %g2
41005420:	84 20 c0 02 	sub  %g3, %g2, %g2
41005424:	81 80 80 00 	mov  %g2, %y
41005428:	01 00 00 00 	nop 
4100542c:	01 00 00 00 	nop 
41005430:	01 00 00 00 	nop 
41005434:	98 73 40 01 	udiv  %o5, %g1, %o4
41005438:	86 53 00 01 	umul  %o4, %g1, %g3
4100543c:	86 23 40 03 	sub  %o5, %g3, %g3
41005440:	10 bf ff e0 	b  410053c0 <__divdi3+0x78>
41005444:	82 10 00 0b 	mov  %o3, %g1
41005448:	98 13 23 ff 	or  %o4, 0x3ff, %o4
4100544c:	80 a6 80 0c 	cmp  %i2, %o4
41005450:	08 80 00 25 	bleu  410054e4 <__divdi3+0x19c>
41005454:	80 a6 a0 ff 	cmp  %i2, 0xff
41005458:	19 00 3f ff 	sethi  %hi(0xfffc00), %o4
4100545c:	98 13 23 ff 	or  %o4, 0x3ff, %o4	! ffffff <RAM_SIZE+0xbfffff>
41005460:	96 10 20 10 	mov  0x10, %o3
41005464:	80 a6 80 0c 	cmp  %i2, %o4
41005468:	08 80 00 04 	bleu  41005478 <__divdi3+0x130>
4100546c:	98 10 20 10 	mov  0x10, %o4
41005470:	96 10 20 18 	mov  0x18, %o3
41005474:	98 10 20 18 	mov  0x18, %o4
41005478:	97 30 80 0b 	srl  %g2, %o3, %o3
4100547c:	15 10 40 19 	sethi  %hi(0x41006400), %o2
41005480:	94 12 a0 e8 	or  %o2, 0xe8, %o2	! 410064e8 <__clz_tab>
41005484:	d6 0a 80 0b 	ldub  [ %o2 + %o3 ], %o3
41005488:	98 02 c0 0c 	add  %o3, %o4, %o4
4100548c:	96 10 20 20 	mov  0x20, %o3
41005490:	96 a2 c0 0c 	subcc  %o3, %o4, %o3
41005494:	32 80 00 1a 	bne,a   410054fc <__divdi3+0x1b4>
41005498:	85 28 80 0b 	sll  %g2, %o3, %g2
4100549c:	80 a0 40 0d 	cmp  %g1, %o5
410054a0:	08 80 00 06 	bleu  410054b8 <__divdi3+0x170>
410054a4:	98 10 20 01 	mov  1, %o4
410054a8:	80 a0 80 03 	cmp  %g2, %g3
410054ac:	3a bf ff c4 	bcc,a   410053bc <__divdi3+0x74>
410054b0:	98 10 20 00 	clr  %o4
410054b4:	98 10 20 01 	mov  1, %o4
410054b8:	10 bf ff c2 	b  410053c0 <__divdi3+0x78>
410054bc:	82 10 20 00 	clr  %g1
410054c0:	b2 a0 00 19 	subcc  %g0, %i1, %i1
410054c4:	b0 60 00 18 	subx  %g0, %i0, %i0
410054c8:	80 a6 a0 00 	cmp  %i2, 0
410054cc:	16 bf ff a6 	bge  41005364 <__divdi3+0x1c>
410054d0:	88 10 3f ff 	mov  -1, %g4
410054d4:	b6 a0 00 1b 	subcc  %g0, %i3, %i3
410054d8:	88 38 00 04 	xnor  %g0, %g4, %g4
410054dc:	10 bf ff a2 	b  41005364 <__divdi3+0x1c>
410054e0:	b4 60 00 1a 	subx  %g0, %i2, %i2
410054e4:	96 10 20 00 	clr  %o3
410054e8:	08 bf ff e4 	bleu  41005478 <__divdi3+0x130>
410054ec:	98 10 20 00 	clr  %o4
410054f0:	96 10 20 08 	mov  8, %o3
410054f4:	10 bf ff e1 	b  41005478 <__divdi3+0x130>
410054f8:	98 10 20 08 	mov  8, %o4
410054fc:	95 28 40 0b 	sll  %g1, %o3, %o2
41005500:	91 28 c0 0b 	sll  %g3, %o3, %o0
41005504:	93 33 40 0c 	srl  %o5, %o4, %o1
41005508:	83 30 40 0c 	srl  %g1, %o4, %g1
4100550c:	92 12 00 09 	or  %o0, %o1, %o1
41005510:	82 10 80 01 	or  %g2, %g1, %g1
41005514:	87 30 c0 0c 	srl  %g3, %o4, %g3
41005518:	81 80 c0 00 	mov  %g3, %y
4100551c:	01 00 00 00 	nop 
41005520:	01 00 00 00 	nop 
41005524:	01 00 00 00 	nop 
41005528:	98 72 40 01 	udiv  %o1, %g1, %o4
4100552c:	84 53 00 01 	umul  %o4, %g1, %g2
41005530:	84 22 40 02 	sub  %o1, %g2, %g2
41005534:	94 53 00 0a 	umul  %o4, %o2, %o2
41005538:	83 40 00 00 	rd  %y, %g1
4100553c:	80 a0 80 01 	cmp  %g2, %g1
41005540:	2a 80 00 0a 	bcs,a   41005568 <__divdi3+0x220>
41005544:	98 03 3f ff 	add  %o4, -1, %o4
41005548:	97 2b 40 0b 	sll  %o5, %o3, %o3
4100554c:	80 a2 c0 0a 	cmp  %o3, %o2
41005550:	3a bf ff 9c 	bcc,a   410053c0 <__divdi3+0x78>
41005554:	82 10 20 00 	clr  %g1
41005558:	80 a0 80 01 	cmp  %g2, %g1
4100555c:	32 bf ff 99 	bne,a   410053c0 <__divdi3+0x78>
41005560:	82 10 20 00 	clr  %g1
41005564:	98 03 3f ff 	add  %o4, -1, %o4
41005568:	10 bf ff 96 	b  410053c0 <__divdi3+0x78>
4100556c:	82 10 20 00 	clr  %g1
41005570:	41 00 5a 94 	call  4501bfc0 <RAM_END+0x3c1bfc0>
41005574:	41 00 5b 38 	call  4501c254 <RAM_END+0x3c1c254>
41005578:	41 00 5b 38 	call  4501c258 <RAM_END+0x3c1c258>
4100557c:	41 00 5b 38 	call  4501c25c <RAM_END+0x3c1c25c>
41005580:	41 00 5b 38 	call  4501c260 <RAM_END+0x3c1c260>
41005584:	41 00 5a 94 	call  4501bfd4 <RAM_END+0x3c1bfd4>
41005588:	41 00 5b 38 	call  4501c268 <RAM_END+0x3c1c268>
4100558c:	41 00 5b 38 	call  4501c26c <RAM_END+0x3c1c26c>
41005590:	41 00 5b 38 	call  4501c270 <RAM_END+0x3c1c270>
41005594:	41 00 5b 38 	call  4501c274 <RAM_END+0x3c1c274>
41005598:	41 00 5b 38 	call  4501c278 <RAM_END+0x3c1c278>
4100559c:	41 00 5b 38 	call  4501c27c <RAM_END+0x3c1c27c>
410055a0:	41 00 59 80 	call  4501bba0 <RAM_END+0x3c1bba0>
410055a4:	41 00 5b 38 	call  4501c284 <RAM_END+0x3c1c284>
410055a8:	41 00 5b 38 	call  4501c288 <RAM_END+0x3c1c288>
410055ac:	41 00 5b 38 	call  4501c28c <RAM_END+0x3c1c28c>
410055b0:	41 00 5b 38 	call  4501c290 <RAM_END+0x3c1c290>
410055b4:	41 00 5b 38 	call  4501c294 <RAM_END+0x3c1c294>
410055b8:	41 00 5b 38 	call  4501c298 <RAM_END+0x3c1c298>
410055bc:	41 00 5b 38 	call  4501c29c <RAM_END+0x3c1c29c>
410055c0:	41 00 58 48 	call  4501b6e0 <RAM_END+0x3c1b6e0>
410055c4:	41 00 5b 38 	call  4501c2a4 <RAM_END+0x3c1c2a4>
410055c8:	41 00 5b 38 	call  4501c2a8 <RAM_END+0x3c1c2a8>
410055cc:	41 00 5b 38 	call  4501c2ac <RAM_END+0x3c1c2ac>
410055d0:	41 00 5b 38 	call  4501c2b0 <RAM_END+0x3c1c2b0>
410055d4:	41 00 5b 38 	call  4501c2b4 <RAM_END+0x3c1c2b4>
410055d8:	41 00 5b 38 	call  4501c2b8 <RAM_END+0x3c1c2b8>
410055dc:	41 00 5b 38 	call  4501c2bc <RAM_END+0x3c1c2bc>
410055e0:	41 00 5b 38 	call  4501c2c0 <RAM_END+0x3c1c2c0>
410055e4:	41 00 5b 38 	call  4501c2c4 <RAM_END+0x3c1c2c4>
410055e8:	41 00 5b 38 	call  4501c2c8 <RAM_END+0x3c1c2c8>
410055ec:	41 00 5b 00 	call  4501c1ec <RAM_END+0x3c1c1ec>
410055f0:	41 00 5a 94 	call  4501c040 <RAM_END+0x3c1c040>
410055f4:	41 00 5b 38 	call  4501c2d4 <RAM_END+0x3c1c2d4>
410055f8:	41 00 5b 38 	call  4501c2d8 <RAM_END+0x3c1c2d8>
410055fc:	41 00 5b 38 	call  4501c2dc <RAM_END+0x3c1c2dc>
41005600:	41 00 5b 38 	call  4501c2e0 <RAM_END+0x3c1c2e0>
41005604:	41 00 5a 94 	call  4501c054 <RAM_END+0x3c1c054>
41005608:	41 00 5b 38 	call  4501c2e8 <RAM_END+0x3c1c2e8>
4100560c:	41 00 5b 38 	call  4501c2ec <RAM_END+0x3c1c2ec>
41005610:	41 00 5b 38 	call  4501c2f0 <RAM_END+0x3c1c2f0>
41005614:	41 00 5b 38 	call  4501c2f4 <RAM_END+0x3c1c2f4>
41005618:	41 00 5b 38 	call  4501c2f8 <RAM_END+0x3c1c2f8>
4100561c:	41 00 5b 38 	call  4501c2fc <RAM_END+0x3c1c2fc>
41005620:	41 00 59 80 	call  4501bc20 <RAM_END+0x3c1bc20>
41005624:	41 00 5b 38 	call  4501c304 <RAM_END+0x3c1c304>
41005628:	41 00 5b 38 	call  4501c308 <RAM_END+0x3c1c308>
4100562c:	41 00 5a a4 	call  4501c0bc <RAM_END+0x3c1c0bc>
41005630:	41 00 5b 38 	call  4501c310 <RAM_END+0x3c1c310>
41005634:	41 00 5b 38 	call  4501c314 <RAM_END+0x3c1c314>
41005638:	41 00 5b 38 	call  4501c318 <RAM_END+0x3c1c318>
4100563c:	41 00 5b 38 	call  4501c31c <RAM_END+0x3c1c31c>
41005640:	41 00 58 48 	call  4501b760 <RAM_END+0x3c1b760>

41005644 <print_byte>:
41005644:	fa 23 a0 34 	st  %i5, [ %sp + 0x34 ]
41005648:	fe 23 a0 3c 	st  %i7, [ %sp + 0x3c ]
4100564c:	9c 03 bf a0 	add  %sp, -96, %sp
41005650:	c2 02 40 00 	ld  [ %o1 ], %g1
41005654:	d4 2a 00 01 	stb  %o2, [ %o0 + %g1 ]
41005658:	c2 02 40 00 	ld  [ %o1 ], %g1
4100565c:	82 00 60 01 	inc  %g1
41005660:	c2 22 40 00 	st  %g1, [ %o1 ]
41005664:	80 a0 60 3f 	cmp  %g1, 0x3f
41005668:	04 80 00 06 	ble  41005680 <print_byte+0x3c>
4100566c:	be 10 00 0f 	mov  %o7, %i7
41005670:	ba 10 00 09 	mov  %o1, %i5
41005674:	40 00 02 da 	call  410061dc <xky_syscall_print>
41005678:	92 10 20 40 	mov  0x40, %o1
4100567c:	c0 27 40 00 	clr  [ %i5 ]
41005680:	9e 10 00 1f 	mov  %i7, %o7
41005684:	fa 03 a0 94 	ld  [ %sp + 0x94 ], %i5
41005688:	fe 03 a0 9c 	ld  [ %sp + 0x9c ], %i7
4100568c:	81 c3 e0 08 	retl 
41005690:	9c 03 a0 60 	add  %sp, 0x60, %sp

41005694 <libpprintf_internal_pprintf>:
41005694:	e0 3b 80 00 	std  %l0, [ %sp ]
41005698:	e4 3b a0 08 	std  %l2, [ %sp + 8 ]
4100569c:	e8 23 a0 10 	st  %l4, [ %sp + 0x10 ]
410056a0:	f0 3b a0 20 	std  %i0, [ %sp + 0x20 ]
410056a4:	f4 3b a0 28 	std  %i2, [ %sp + 0x28 ]
410056a8:	f8 3b a0 30 	std  %i4, [ %sp + 0x30 ]
410056ac:	fe 23 a0 3c 	st  %i7, [ %sp + 0x3c ]
410056b0:	9c 03 bf 40 	add  %sp, -192, %sp
410056b4:	d2 23 a1 08 	st  %o1, [ %sp + 0x108 ]
410056b8:	d4 23 a1 0c 	st  %o2, [ %sp + 0x10c ]
410056bc:	d6 23 a1 10 	st  %o3, [ %sp + 0x110 ]
410056c0:	d8 23 a1 14 	st  %o4, [ %sp + 0x114 ]
410056c4:	da 23 a1 18 	st  %o5, [ %sp + 0x118 ]
410056c8:	be 10 00 0f 	mov  %o7, %i7
410056cc:	39 10 40 29 	sethi  %hi(0x4100a400), %i4
410056d0:	c2 07 23 ac 	ld  [ %i4 + 0x3ac ], %g1	! 4100a7ac <printf_inited>
410056d4:	80 a0 60 00 	cmp  %g1, 0
410056d8:	12 80 00 0d 	bne  4100570c <libpprintf_internal_pprintf+0x78>
410056dc:	ba 10 00 08 	mov  %o0, %i5
410056e0:	90 10 3f ff 	mov  -1, %o0
410056e4:	40 00 02 72 	call  410060ac <xky_syscall_get_partition_status>
410056e8:	92 03 a0 80 	add  %sp, 0x80, %o1
410056ec:	80 a2 20 00 	cmp  %o0, 0
410056f0:	12 80 00 1b 	bne  4100575c <libpprintf_internal_pprintf+0xc8>
410056f4:	03 10 40 29 	sethi  %hi(0x4100a400), %g1
410056f8:	c4 03 a0 80 	ld  [ %sp + 0x80 ], %g2
410056fc:	c4 20 63 b0 	st  %g2, [ %g1 + 0x3b0 ]
41005700:	82 10 20 01 	mov  1, %g1
41005704:	10 80 00 04 	b  41005714 <libpprintf_internal_pprintf+0x80>
41005708:	c2 27 23 ac 	st  %g1, [ %i4 + 0x3ac ]
4100570c:	03 10 40 29 	sethi  %hi(0x4100a400), %g1
41005710:	c4 00 63 b0 	ld  [ %g1 + 0x3b0 ], %g2	! 4100a7b0 <partition_idx>
41005714:	87 38 a0 1f 	sra  %g2, 0x1f, %g3
41005718:	81 80 e0 00 	mov  %g3, %y
4100571c:	01 00 00 00 	nop 
41005720:	01 00 00 00 	nop 
41005724:	01 00 00 00 	nop 
41005728:	82 78 a0 06 	sdiv  %g2, 6, %g1
4100572c:	86 00 40 01 	add  %g1, %g1, %g3
41005730:	82 00 c0 01 	add  %g3, %g1, %g1
41005734:	82 00 40 01 	add  %g1, %g1, %g1
41005738:	82 20 80 01 	sub  %g2, %g1, %g1
4100573c:	84 00 40 01 	add  %g1, %g1, %g2
41005740:	82 00 80 01 	add  %g2, %g1, %g1
41005744:	82 00 40 01 	add  %g1, %g1, %g1
41005748:	11 10 40 19 	sethi  %hi(0x41006400), %o0
4100574c:	92 10 20 06 	mov  6, %o1
41005750:	90 12 23 20 	or  %o0, 0x320, %o0
41005754:	40 00 02 a2 	call  410061dc <xky_syscall_print>
41005758:	90 02 00 01 	add  %o0, %g1, %o0
4100575c:	b6 03 a1 08 	add  %sp, 0x108, %i3
41005760:	c0 23 a0 64 	clr  [ %sp + 0x64 ]
41005764:	f6 23 a0 60 	st  %i3, [ %sp + 0x60 ]
41005768:	d4 0f 40 00 	ldub  [ %i5 ], %o2
4100576c:	95 2a a0 18 	sll  %o2, 0x18, %o2
41005770:	80 a2 a0 00 	cmp  %o2, 0
41005774:	02 80 00 7a 	be  4100595c <libpprintf_internal_pprintf+0x2c8>
41005778:	9e 10 00 1f 	mov  %i7, %o7
4100577c:	35 10 40 15 	sethi  %hi(0x41005400), %i2
41005780:	31 00 00 3f 	sethi  %hi(0xfc00), %i0
41005784:	b4 16 a1 70 	or  %i2, 0x170, %i2
41005788:	33 10 40 19 	sethi  %hi(0x41006400), %i1
4100578c:	b0 16 23 ff 	or  %i0, 0x3ff, %i0
41005790:	95 3a a0 18 	sra  %o2, 0x18, %o2
41005794:	80 a2 a0 25 	cmp  %o2, 0x25
41005798:	32 80 00 f4 	bne,a   41005b68 <libpprintf_internal_pprintf+0x4d4>
4100579c:	90 03 a0 80 	add  %sp, 0x80, %o0
410057a0:	c4 4f 60 01 	ldsb  [ %i5 + 1 ], %g2
410057a4:	80 a0 a0 30 	cmp  %g2, 0x30
410057a8:	02 80 00 fa 	be  41005b90 <libpprintf_internal_pprintf+0x4fc>
410057ac:	c2 0f 60 01 	ldub  [ %i5 + 1 ], %g1
410057b0:	b8 07 60 01 	add  %i5, 1, %i4
410057b4:	a4 10 20 00 	clr  %l2
410057b8:	84 00 7f d0 	add  %g1, -48, %g2
410057bc:	84 08 a0 ff 	and  %g2, 0xff, %g2
410057c0:	80 a0 a0 09 	cmp  %g2, 9
410057c4:	18 80 00 10 	bgu  41005804 <libpprintf_internal_pprintf+0x170>
410057c8:	a0 10 20 00 	clr  %l0
410057cc:	a0 04 00 10 	add  %l0, %l0, %l0
410057d0:	83 28 60 18 	sll  %g1, 0x18, %g1
410057d4:	85 2c 20 02 	sll  %l0, 2, %g2
410057d8:	83 38 60 18 	sra  %g1, 0x18, %g1
410057dc:	82 00 7f d0 	add  %g1, -48, %g1
410057e0:	a0 04 00 02 	add  %l0, %g2, %l0
410057e4:	b8 07 20 01 	inc  %i4
410057e8:	a0 04 00 01 	add  %l0, %g1, %l0
410057ec:	c2 0f 00 00 	ldub  [ %i4 ], %g1
410057f0:	84 00 7f d0 	add  %g1, -48, %g2
410057f4:	84 08 a0 ff 	and  %g2, 0xff, %g2
410057f8:	80 a0 a0 09 	cmp  %g2, 9
410057fc:	28 bf ff f5 	bleu,a   410057d0 <libpprintf_internal_pprintf+0x13c>
41005800:	a0 04 00 10 	add  %l0, %l0, %l0
41005804:	85 28 60 18 	sll  %g1, 0x18, %g2
41005808:	85 38 a0 18 	sra  %g2, 0x18, %g2
4100580c:	80 a0 a0 68 	cmp  %g2, 0x68
41005810:	22 80 00 e8 	be,a   41005bb0 <libpprintf_internal_pprintf+0x51c>
41005814:	a4 14 a0 08 	or  %l2, 8, %l2
41005818:	c2 4f 00 00 	ldsb  [ %i4 ], %g1
4100581c:	80 a0 60 6c 	cmp  %g1, 0x6c
41005820:	02 80 00 e0 	be  41005ba0 <libpprintf_internal_pprintf+0x50c>
41005824:	c4 0f 00 00 	ldub  [ %i4 ], %g2
41005828:	82 00 bf bc 	add  %g2, -68, %g1
4100582c:	82 08 60 ff 	and  %g1, 0xff, %g1
41005830:	80 a0 60 34 	cmp  %g1, 0x34
41005834:	18 80 00 c1 	bgu  41005b38 <libpprintf_internal_pprintf+0x4a4>
41005838:	83 28 60 02 	sll  %g1, 2, %g1
4100583c:	c2 06 80 01 	ld  [ %i2 + %g1 ], %g1
41005840:	81 c0 40 00 	jmp  %g1
41005844:	01 00 00 00 	nop 
41005848:	a6 10 20 10 	mov  0x10, %l3	! 10 <PROM_START+0x10>
4100584c:	a2 10 20 10 	mov  0x10, %l1
41005850:	80 8c a0 02 	btst  2, %l2
41005854:	32 80 00 5a 	bne,a   410059bc <libpprintf_internal_pprintf+0x328>
41005858:	fa 06 c0 00 	ld  [ %i3 ], %i5
4100585c:	80 8c a0 10 	btst  0x10, %l2
41005860:	32 80 00 57 	bne,a   410059bc <libpprintf_internal_pprintf+0x328>
41005864:	fa 06 c0 00 	ld  [ %i3 ], %i5
41005868:	84 0c a0 0c 	and  %l2, 0xc, %g2
4100586c:	80 a0 a0 08 	cmp  %g2, 8
41005870:	02 80 00 d2 	be  41005bb8 <libpprintf_internal_pprintf+0x524>
41005874:	80 a0 a0 0c 	cmp  %g2, 0xc
41005878:	02 80 00 de 	be  41005bf0 <libpprintf_internal_pprintf+0x55c>
4100587c:	80 8c a0 04 	btst  4, %l2
41005880:	fa 06 c0 00 	ld  [ %i3 ], %i5
41005884:	12 80 00 52 	bne  410059cc <libpprintf_internal_pprintf+0x338>
41005888:	b6 06 e0 04 	add  %i3, 4, %i3
4100588c:	81 80 20 00 	mov  %g0, %y
41005890:	01 00 00 00 	nop 
41005894:	01 00 00 00 	nop 
41005898:	01 00 00 00 	nop 
4100589c:	84 f7 40 13 	udivcc  %i5, %l3, %g2
410058a0:	12 80 00 55 	bne  410059f4 <libpprintf_internal_pprintf+0x360>
410058a4:	82 10 00 11 	mov  %l1, %g1
410058a8:	84 10 00 1d 	mov  %i5, %g2
410058ac:	88 10 20 00 	clr  %g4
410058b0:	82 03 a0 c0 	add  %sp, 0xc0, %g1
410058b4:	a4 0c a0 01 	and  %l2, 1, %l2
410058b8:	88 00 40 04 	add  %g1, %g4, %g4
410058bc:	80 a0 00 12 	cmp  %g0, %l2
410058c0:	c4 29 3f a8 	stb  %g2, [ %g4 + -88 ]
410058c4:	ba 40 3f ff 	addx  %g0, -1, %i5
410058c8:	a6 10 20 01 	mov  1, %l3
410058cc:	ba 0f 60 f0 	and  %i5, 0xf0, %i5
410058d0:	a8 10 20 00 	clr  %l4
410058d4:	ba 07 60 30 	add  %i5, 0x30, %i5
410058d8:	a2 03 a0 68 	add  %sp, 0x68, %l1
410058dc:	bb 2f 60 18 	sll  %i5, 0x18, %i5
410058e0:	80 a4 c0 10 	cmp  %l3, %l0
410058e4:	0a 80 00 62 	bcs  41005a6c <libpprintf_internal_pprintf+0x3d8>
410058e8:	bb 3f 60 18 	sra  %i5, 0x18, %i5
410058ec:	ba 10 20 00 	clr  %i5
410058f0:	a0 16 61 e8 	or  %i1, 0x1e8, %l0
410058f4:	84 20 00 1d 	neg  %i5, %g2
410058f8:	82 04 40 14 	add  %l1, %l4, %g1
410058fc:	c2 48 40 02 	ldsb  [ %g1 + %g2 ], %g1
41005900:	90 03 a0 80 	add  %sp, 0x80, %o0
41005904:	92 03 a0 64 	add  %sp, 0x64, %o1
41005908:	7f ff ff 4f 	call  41005644 <print_byte>
4100590c:	d4 4c 00 01 	ldsb  [ %l0 + %g1 ], %o2
41005910:	ba 07 60 01 	inc  %i5
41005914:	80 a7 40 13 	cmp  %i5, %l3
41005918:	0a bf ff f8 	bcs  410058f8 <libpprintf_internal_pprintf+0x264>
4100591c:	84 20 00 1d 	neg  %i5, %g2
41005920:	d4 0f 20 01 	ldub  [ %i4 + 1 ], %o2
41005924:	95 2a a0 18 	sll  %o2, 0x18, %o2
41005928:	80 a2 a0 00 	cmp  %o2, 0
4100592c:	12 bf ff 99 	bne  41005790 <libpprintf_internal_pprintf+0xfc>
41005930:	ba 07 20 01 	add  %i4, 1, %i5
41005934:	d2 03 a0 64 	ld  [ %sp + 0x64 ], %o1
41005938:	80 a2 60 00 	cmp  %o1, 0
4100593c:	04 80 00 07 	ble  41005958 <libpprintf_internal_pprintf+0x2c4>
41005940:	84 03 a0 c0 	add  %sp, 0xc0, %g2
41005944:	82 00 80 09 	add  %g2, %o1, %g1
41005948:	90 03 a0 80 	add  %sp, 0x80, %o0
4100594c:	c0 28 7f c0 	clrb  [ %g1 + -64 ]
41005950:	40 00 02 23 	call  410061dc <xky_syscall_print>
41005954:	92 02 60 01 	inc  %o1
41005958:	9e 10 00 1f 	mov  %i7, %o7
4100595c:	e0 1b a0 c0 	ldd  [ %sp + 0xc0 ], %l0
41005960:	e4 1b a0 c8 	ldd  [ %sp + 0xc8 ], %l2
41005964:	e8 03 a0 d0 	ld  [ %sp + 0xd0 ], %l4
41005968:	f0 1b a0 e0 	ldd  [ %sp + 0xe0 ], %i0
4100596c:	f4 1b a0 e8 	ldd  [ %sp + 0xe8 ], %i2
41005970:	f8 1b a0 f0 	ldd  [ %sp + 0xf0 ], %i4
41005974:	fe 03 a0 fc 	ld  [ %sp + 0xfc ], %i7
41005978:	81 c3 e0 08 	retl 
4100597c:	9c 03 a0 c0 	add  %sp, 0xc0, %sp
41005980:	94 10 20 30 	mov  0x30, %o2
41005984:	90 03 a0 80 	add  %sp, 0x80, %o0
41005988:	7f ff ff 2f 	call  41005644 <print_byte>
4100598c:	92 03 a0 64 	add  %sp, 0x64, %o1
41005990:	90 03 a0 80 	add  %sp, 0x80, %o0
41005994:	92 03 a0 64 	add  %sp, 0x64, %o1
41005998:	7f ff ff 2b 	call  41005644 <print_byte>
4100599c:	94 10 20 78 	mov  0x78, %o2
410059a0:	a4 14 a0 03 	or  %l2, 3, %l2
410059a4:	a6 10 20 10 	mov  0x10, %l3
410059a8:	a2 10 20 10 	mov  0x10, %l1
410059ac:	80 8c a0 02 	btst  2, %l2
410059b0:	02 bf ff ab 	be  4100585c <libpprintf_internal_pprintf+0x1c8>
410059b4:	a0 10 20 08 	mov  8, %l0
410059b8:	fa 06 c0 00 	ld  [ %i3 ], %i5
410059bc:	b6 06 e0 04 	add  %i3, 4, %i3
410059c0:	80 8c a0 04 	btst  4, %l2
410059c4:	02 80 00 05 	be  410059d8 <libpprintf_internal_pprintf+0x344>
410059c8:	01 00 00 00 	nop 
410059cc:	80 a7 60 00 	cmp  %i5, 0
410059d0:	06 80 00 7e 	bl  41005bc8 <libpprintf_internal_pprintf+0x534>
410059d4:	90 03 a0 80 	add  %sp, 0x80, %o0
410059d8:	81 80 20 00 	mov  %g0, %y
410059dc:	01 00 00 00 	nop 
410059e0:	01 00 00 00 	nop 
410059e4:	01 00 00 00 	nop 
410059e8:	84 f7 40 13 	udivcc  %i5, %l3, %g2
410059ec:	02 bf ff af 	be  410058a8 <libpprintf_internal_pprintf+0x214>
410059f0:	82 10 00 11 	mov  %l1, %g1
410059f4:	88 10 20 00 	clr  %g4
410059f8:	10 80 00 03 	b  41005a04 <libpprintf_internal_pprintf+0x370>
410059fc:	a2 03 a0 68 	add  %sp, 0x68, %l1
41005a00:	84 10 00 03 	mov  %g3, %g2
41005a04:	86 58 80 01 	smul  %g2, %g1, %g3
41005a08:	88 01 20 01 	inc  %g4
41005a0c:	ba 27 40 03 	sub  %i5, %g3, %i5
41005a10:	9e 04 40 04 	add  %l1, %g4, %o7
41005a14:	fa 2b ff ff 	stb  %i5, [ %o7 + -1 ]
41005a18:	81 80 20 00 	mov  %g0, %y
41005a1c:	01 00 00 00 	nop 
41005a20:	01 00 00 00 	nop 
41005a24:	01 00 00 00 	nop 
41005a28:	86 f0 80 13 	udivcc  %g2, %l3, %g3
41005a2c:	12 bf ff f5 	bne  41005a00 <libpprintf_internal_pprintf+0x36c>
41005a30:	ba 10 00 02 	mov  %g2, %i5
41005a34:	a6 01 20 01 	add  %g4, 1, %l3
41005a38:	a8 10 00 04 	mov  %g4, %l4
41005a3c:	82 03 a0 c0 	add  %sp, 0xc0, %g1
41005a40:	a4 0c a0 01 	and  %l2, 1, %l2
41005a44:	88 00 40 04 	add  %g1, %g4, %g4
41005a48:	80 a0 00 12 	cmp  %g0, %l2
41005a4c:	c4 29 3f a8 	stb  %g2, [ %g4 + -88 ]
41005a50:	ba 40 3f ff 	addx  %g0, -1, %i5
41005a54:	80 a4 c0 10 	cmp  %l3, %l0
41005a58:	ba 0f 60 f0 	and  %i5, 0xf0, %i5
41005a5c:	ba 07 60 30 	add  %i5, 0x30, %i5
41005a60:	bb 2f 60 18 	sll  %i5, 0x18, %i5
41005a64:	1a bf ff a2 	bcc  410058ec <libpprintf_internal_pprintf+0x258>
41005a68:	bb 3f 60 18 	sra  %i5, 0x18, %i5
41005a6c:	90 03 a0 80 	add  %sp, 0x80, %o0
41005a70:	92 03 a0 64 	add  %sp, 0x64, %o1
41005a74:	7f ff fe f4 	call  41005644 <print_byte>
41005a78:	94 10 00 1d 	mov  %i5, %o2
41005a7c:	a0 04 3f ff 	add  %l0, -1, %l0
41005a80:	80 a4 00 13 	cmp  %l0, %l3
41005a84:	18 bf ff fb 	bgu  41005a70 <libpprintf_internal_pprintf+0x3dc>
41005a88:	90 03 a0 80 	add  %sp, 0x80, %o0
41005a8c:	10 bf ff 99 	b  410058f0 <libpprintf_internal_pprintf+0x25c>
41005a90:	ba 10 20 00 	clr  %i5
41005a94:	a4 14 a0 04 	or  %l2, 4, %l2
41005a98:	a6 10 20 0a 	mov  0xa, %l3
41005a9c:	10 bf ff 6d 	b  41005850 <libpprintf_internal_pprintf+0x1bc>
41005aa0:	a2 10 20 0a 	mov  0xa, %l1
41005aa4:	fa 06 c0 00 	ld  [ %i3 ], %i5
41005aa8:	d4 0f 40 00 	ldub  [ %i5 ], %o2
41005aac:	95 2a a0 18 	sll  %o2, 0x18, %o2
41005ab0:	80 a2 a0 00 	cmp  %o2, 0
41005ab4:	02 bf ff 9b 	be  41005920 <libpprintf_internal_pprintf+0x28c>
41005ab8:	b6 06 e0 04 	add  %i3, 4, %i3
41005abc:	95 3a a0 18 	sra  %o2, 0x18, %o2
41005ac0:	90 03 a0 80 	add  %sp, 0x80, %o0
41005ac4:	7f ff fe e0 	call  41005644 <print_byte>
41005ac8:	92 03 a0 64 	add  %sp, 0x64, %o1
41005acc:	ba 07 60 01 	inc  %i5
41005ad0:	d4 0f 40 00 	ldub  [ %i5 ], %o2
41005ad4:	95 2a a0 18 	sll  %o2, 0x18, %o2
41005ad8:	80 a2 a0 00 	cmp  %o2, 0
41005adc:	12 bf ff f9 	bne  41005ac0 <libpprintf_internal_pprintf+0x42c>
41005ae0:	95 3a a0 18 	sra  %o2, 0x18, %o2
41005ae4:	d4 0f 20 01 	ldub  [ %i4 + 1 ], %o2
41005ae8:	95 2a a0 18 	sll  %o2, 0x18, %o2
41005aec:	80 a2 a0 00 	cmp  %o2, 0
41005af0:	12 bf ff 28 	bne  41005790 <libpprintf_internal_pprintf+0xfc>
41005af4:	ba 07 20 01 	add  %i4, 1, %i5
41005af8:	10 bf ff 90 	b  41005938 <libpprintf_internal_pprintf+0x2a4>
41005afc:	d2 03 a0 64 	ld  [ %sp + 0x64 ], %o1
41005b00:	d4 06 c0 00 	ld  [ %i3 ], %o2
41005b04:	90 03 a0 80 	add  %sp, 0x80, %o0
41005b08:	95 2a a0 18 	sll  %o2, 0x18, %o2
41005b0c:	92 03 a0 64 	add  %sp, 0x64, %o1
41005b10:	7f ff fe cd 	call  41005644 <print_byte>
41005b14:	95 3a a0 18 	sra  %o2, 0x18, %o2
41005b18:	d4 0f 20 01 	ldub  [ %i4 + 1 ], %o2
41005b1c:	b6 06 e0 04 	add  %i3, 4, %i3
41005b20:	95 2a a0 18 	sll  %o2, 0x18, %o2
41005b24:	80 a2 a0 00 	cmp  %o2, 0
41005b28:	12 bf ff 1a 	bne  41005790 <libpprintf_internal_pprintf+0xfc>
41005b2c:	ba 07 20 01 	add  %i4, 1, %i5
41005b30:	10 bf ff 82 	b  41005938 <libpprintf_internal_pprintf+0x2a4>
41005b34:	d2 03 a0 64 	ld  [ %sp + 0x64 ], %o1
41005b38:	95 28 a0 18 	sll  %g2, 0x18, %o2
41005b3c:	90 03 a0 80 	add  %sp, 0x80, %o0
41005b40:	95 3a a0 18 	sra  %o2, 0x18, %o2
41005b44:	7f ff fe c0 	call  41005644 <print_byte>
41005b48:	92 03 a0 64 	add  %sp, 0x64, %o1
41005b4c:	d4 0f 20 01 	ldub  [ %i4 + 1 ], %o2
41005b50:	95 2a a0 18 	sll  %o2, 0x18, %o2
41005b54:	80 a2 a0 00 	cmp  %o2, 0
41005b58:	12 bf ff 0e 	bne  41005790 <libpprintf_internal_pprintf+0xfc>
41005b5c:	ba 07 20 01 	add  %i4, 1, %i5
41005b60:	10 bf ff 76 	b  41005938 <libpprintf_internal_pprintf+0x2a4>
41005b64:	d2 03 a0 64 	ld  [ %sp + 0x64 ], %o1
41005b68:	7f ff fe b7 	call  41005644 <print_byte>
41005b6c:	92 03 a0 64 	add  %sp, 0x64, %o1
41005b70:	b8 10 00 1d 	mov  %i5, %i4
41005b74:	d4 0f 20 01 	ldub  [ %i4 + 1 ], %o2
41005b78:	95 2a a0 18 	sll  %o2, 0x18, %o2
41005b7c:	80 a2 a0 00 	cmp  %o2, 0
41005b80:	12 bf ff 04 	bne  41005790 <libpprintf_internal_pprintf+0xfc>
41005b84:	ba 07 20 01 	add  %i4, 1, %i5
41005b88:	10 bf ff 6c 	b  41005938 <libpprintf_internal_pprintf+0x2a4>
41005b8c:	d2 03 a0 64 	ld  [ %sp + 0x64 ], %o1
41005b90:	b8 07 60 02 	add  %i5, 2, %i4
41005b94:	c2 0f 60 02 	ldub  [ %i5 + 2 ], %g1
41005b98:	10 bf ff 08 	b  410057b8 <libpprintf_internal_pprintf+0x124>
41005b9c:	a4 10 20 01 	mov  1, %l2
41005ba0:	c4 0f 20 01 	ldub  [ %i4 + 1 ], %g2
41005ba4:	a4 14 a0 10 	or  %l2, 0x10, %l2
41005ba8:	10 bf ff 20 	b  41005828 <libpprintf_internal_pprintf+0x194>
41005bac:	b8 07 20 01 	inc  %i4
41005bb0:	10 bf ff 1a 	b  41005818 <libpprintf_internal_pprintf+0x184>
41005bb4:	b8 07 20 01 	inc  %i4
41005bb8:	fa 06 c0 00 	ld  [ %i3 ], %i5
41005bbc:	b6 06 e0 04 	add  %i3, 4, %i3
41005bc0:	10 bf ff 80 	b  410059c0 <libpprintf_internal_pprintf+0x32c>
41005bc4:	ba 0f 40 18 	and  %i5, %i0, %i5
41005bc8:	92 03 a0 64 	add  %sp, 0x64, %o1
41005bcc:	7f ff fe 9e 	call  41005644 <print_byte>
41005bd0:	94 10 20 2d 	mov  0x2d, %o2
41005bd4:	80 a4 20 00 	cmp  %l0, 0
41005bd8:	02 80 00 03 	be  41005be4 <libpprintf_internal_pprintf+0x550>
41005bdc:	84 10 20 00 	clr  %g2
41005be0:	84 04 3f ff 	add  %l0, -1, %g2
41005be4:	ba 20 00 1d 	neg  %i5
41005be8:	10 bf ff 7c 	b  410059d8 <libpprintf_internal_pprintf+0x344>
41005bec:	a0 10 00 02 	mov  %g2, %l0
41005bf0:	fa 56 e0 02 	ldsh  [ %i3 + 2 ], %i5
41005bf4:	10 bf ff 73 	b  410059c0 <libpprintf_internal_pprintf+0x32c>
41005bf8:	b6 06 e0 04 	add  %i3, 4, %i3

41005bfc <imaspex_init>:
41005bfc:	fe 23 a0 3c 	st  %i7, [ %sp + 0x3c ]
41005c00:	9c 03 bf a0 	add  %sp, -96, %sp
41005c04:	03 10 40 29 	sethi  %hi(0x4100a400), %g1
41005c08:	be 10 00 0f 	mov  %o7, %i7
41005c0c:	c4 00 63 b4 	ld  [ %g1 + 0x3b4 ], %g2
41005c10:	80 a0 a0 00 	cmp  %g2, 0
41005c14:	12 80 00 0b 	bne  41005c40 <imaspex_init+0x44>
41005c18:	90 10 20 01 	mov  1, %o0
41005c1c:	40 00 01 18 	call  4100607c <xky_syscall_get_us_per_tick>
41005c20:	d0 20 63 b4 	st  %o0, [ %g1 + 0x3b4 ]
41005c24:	82 5a 23 e8 	smul  %o0, 0x3e8, %g1
41005c28:	86 52 63 e8 	umul  %o1, 0x3e8, %g3
41005c2c:	85 40 00 00 	rd  %y, %g2
41005c30:	90 10 20 00 	clr  %o0
41005c34:	84 00 40 02 	add  %g1, %g2, %g2
41005c38:	03 10 40 2c 	sethi  %hi(0x4100b000), %g1
41005c3c:	c4 38 61 f0 	std  %g2, [ %g1 + 0x1f0 ]	! 4100b1f0 <imaspex_ns_per_tick>
41005c40:	9e 10 00 1f 	mov  %i7, %o7
41005c44:	fe 03 a0 9c 	ld  [ %sp + 0x9c ], %i7
41005c48:	81 c3 e0 08 	retl 
41005c4c:	9c 03 a0 60 	add  %sp, 0x60, %sp

41005c50 <TSAL_INIT>:
41005c50:	fe 23 a0 3c 	st  %i7, [ %sp + 0x3c ]
41005c54:	9c 03 bf a0 	add  %sp, -96, %sp
41005c58:	03 10 40 29 	sethi  %hi(0x4100a400), %g1
41005c5c:	be 10 00 0f 	mov  %o7, %i7
41005c60:	c4 00 63 b4 	ld  [ %g1 + 0x3b4 ], %g2
41005c64:	80 a0 a0 00 	cmp  %g2, 0
41005c68:	12 80 00 0b 	bne  41005c94 <TSAL_INIT+0x44>
41005c6c:	90 10 20 01 	mov  1, %o0
41005c70:	40 00 01 03 	call  4100607c <xky_syscall_get_us_per_tick>
41005c74:	d0 20 63 b4 	st  %o0, [ %g1 + 0x3b4 ]
41005c78:	82 5a 23 e8 	smul  %o0, 0x3e8, %g1
41005c7c:	86 52 63 e8 	umul  %o1, 0x3e8, %g3
41005c80:	85 40 00 00 	rd  %y, %g2
41005c84:	90 10 20 00 	clr  %o0
41005c88:	84 00 40 02 	add  %g1, %g2, %g2
41005c8c:	03 10 40 2c 	sethi  %hi(0x4100b000), %g1
41005c90:	c4 38 61 f0 	std  %g2, [ %g1 + 0x1f0 ]	! 4100b1f0 <imaspex_ns_per_tick>
41005c94:	9e 10 00 1f 	mov  %i7, %o7
41005c98:	fe 03 a0 9c 	ld  [ %sp + 0x9c ], %i7
41005c9c:	81 c3 e0 08 	retl 
41005ca0:	9c 03 a0 60 	add  %sp, 0x60, %sp

41005ca4 <GET_PARTITION_STATUS>:
41005ca4:	f8 3b a0 30 	std  %i4, [ %sp + 0x30 ]
41005ca8:	fe 23 a0 3c 	st  %i7, [ %sp + 0x3c ]
41005cac:	9c 03 bf 70 	add  %sp, -144, %sp
41005cb0:	03 10 40 29 	sethi  %hi(0x4100a400), %g1
41005cb4:	c2 00 63 b4 	ld  [ %g1 + 0x3b4 ], %g1	! 4100a7b4 <imaspex_tsal_init>
41005cb8:	80 a0 60 00 	cmp  %g1, 0
41005cbc:	12 80 00 09 	bne  41005ce0 <GET_PARTITION_STATUS+0x3c>
41005cc0:	be 10 00 0f 	mov  %o7, %i7
41005cc4:	82 10 20 05 	mov  5, %g1
41005cc8:	c2 22 40 00 	st  %g1, [ %o1 ]
41005ccc:	9e 10 00 1f 	mov  %i7, %o7
41005cd0:	f8 1b a0 c0 	ldd  [ %sp + 0xc0 ], %i4
41005cd4:	fe 03 a0 cc 	ld  [ %sp + 0xcc ], %i7
41005cd8:	81 c3 e0 08 	retl 
41005cdc:	9c 03 a0 90 	add  %sp, 0x90, %sp
41005ce0:	ba 10 00 09 	mov  %o1, %i5
41005ce4:	b8 10 00 08 	mov  %o0, %i4
41005ce8:	92 03 a0 60 	add  %sp, 0x60, %o1
41005cec:	40 00 00 f0 	call  410060ac <xky_syscall_get_partition_status>
41005cf0:	90 10 3f ff 	mov  -1, %o0
41005cf4:	80 a2 20 00 	cmp  %o0, 0
41005cf8:	12 bf ff f5 	bne  41005ccc <GET_PARTITION_STATUS+0x28>
41005cfc:	d0 27 40 00 	st  %o0, [ %i5 ]
41005d00:	d8 03 a0 74 	ld  [ %sp + 0x74 ], %o4
41005d04:	03 10 40 2c 	sethi  %hi(0x4100b000), %g1
41005d08:	c8 03 a0 70 	ld  [ %sp + 0x70 ], %g4
41005d0c:	c6 00 61 f0 	ld  [ %g1 + 0x1f0 ], %g3
41005d10:	82 10 61 f0 	or  %g1, 0x1f0, %g1
41005d14:	ba 5b 00 03 	smul  %o4, %g3, %i5
41005d18:	c2 00 60 04 	ld  [ %g1 + 4 ], %g1
41005d1c:	88 59 00 01 	smul  %g4, %g1, %g4
41005d20:	88 01 00 1d 	add  %g4, %i5, %g4
41005d24:	9a 53 00 01 	umul  %o4, %g1, %o5
41005d28:	99 40 00 00 	rd  %y, %o4
41005d2c:	c4 03 a0 6c 	ld  [ %sp + 0x6c ], %g2
41005d30:	98 01 00 0c 	add  %g4, %o4, %o4
41005d34:	fa 03 a0 68 	ld  [ %sp + 0x68 ], %i5
41005d38:	88 58 80 03 	smul  %g2, %g3, %g4
41005d3c:	86 50 80 01 	umul  %g2, %g1, %g3
41005d40:	85 40 00 00 	rd  %y, %g2
41005d44:	82 5f 40 01 	smul  %i5, %g1, %g1
41005d48:	82 01 00 01 	add  %g4, %g1, %g1
41005d4c:	84 00 40 02 	add  %g1, %g2, %g2
41005d50:	c2 03 a0 78 	ld  [ %sp + 0x78 ], %g1
41005d54:	c8 03 a0 84 	ld  [ %sp + 0x84 ], %g4
41005d58:	c2 27 20 10 	st  %g1, [ %i4 + 0x10 ]
41005d5c:	c8 27 20 1c 	st  %g4, [ %i4 + 0x1c ]
41005d60:	d8 3f 20 08 	std  %o4, [ %i4 + 8 ]
41005d64:	c4 3f 00 00 	std  %g2, [ %i4 ]
41005d68:	c2 03 a0 80 	ld  [ %sp + 0x80 ], %g1
41005d6c:	9e 10 00 1f 	mov  %i7, %o7
41005d70:	c2 27 20 18 	st  %g1, [ %i4 + 0x18 ]
41005d74:	fe 03 a0 cc 	ld  [ %sp + 0xcc ], %i7
41005d78:	f8 1b a0 c0 	ldd  [ %sp + 0xc0 ], %i4
41005d7c:	81 c3 e0 08 	retl 
41005d80:	9c 03 a0 90 	add  %sp, 0x90, %sp

41005d84 <SET_PARTITION_MODE>:
41005d84:	fa 23 a0 34 	st  %i5, [ %sp + 0x34 ]
41005d88:	fe 23 a0 3c 	st  %i7, [ %sp + 0x3c ]
41005d8c:	9c 03 bf a0 	add  %sp, -96, %sp
41005d90:	03 10 40 29 	sethi  %hi(0x4100a400), %g1
41005d94:	c2 00 63 b4 	ld  [ %g1 + 0x3b4 ], %g1	! 4100a7b4 <imaspex_tsal_init>
41005d98:	80 a0 60 00 	cmp  %g1, 0
41005d9c:	12 80 00 09 	bne  41005dc0 <SET_PARTITION_MODE+0x3c>
41005da0:	be 10 00 0f 	mov  %o7, %i7
41005da4:	82 10 20 05 	mov  5, %g1
41005da8:	9e 10 00 1f 	mov  %i7, %o7
41005dac:	c2 22 40 00 	st  %g1, [ %o1 ]
41005db0:	fa 03 a0 94 	ld  [ %sp + 0x94 ], %i5
41005db4:	fe 03 a0 9c 	ld  [ %sp + 0x9c ], %i7
41005db8:	81 c3 e0 08 	retl 
41005dbc:	9c 03 a0 60 	add  %sp, 0x60, %sp
41005dc0:	ba 10 00 09 	mov  %o1, %i5
41005dc4:	92 10 00 08 	mov  %o0, %o1
41005dc8:	40 00 00 bd 	call  410060bc <xky_syscall_set_partition_mode>
41005dcc:	90 10 3f ff 	mov  -1, %o0
41005dd0:	d0 27 40 00 	st  %o0, [ %i5 ]
41005dd4:	9e 10 00 1f 	mov  %i7, %o7
41005dd8:	fa 03 a0 94 	ld  [ %sp + 0x94 ], %i5
41005ddc:	fe 03 a0 9c 	ld  [ %sp + 0x9c ], %i7
41005de0:	81 c3 e0 08 	retl 
41005de4:	9c 03 a0 60 	add  %sp, 0x60, %sp

41005de8 <GET_TIME>:
41005de8:	f8 3b a0 30 	std  %i4, [ %sp + 0x30 ]
41005dec:	fe 23 a0 3c 	st  %i7, [ %sp + 0x3c ]
41005df0:	9c 03 bf a0 	add  %sp, -96, %sp
41005df4:	03 10 40 29 	sethi  %hi(0x4100a400), %g1
41005df8:	c2 00 63 b4 	ld  [ %g1 + 0x3b4 ], %g1	! 4100a7b4 <imaspex_tsal_init>
41005dfc:	80 a0 60 00 	cmp  %g1, 0
41005e00:	12 80 00 09 	bne  41005e24 <GET_TIME+0x3c>
41005e04:	be 10 00 0f 	mov  %o7, %i7
41005e08:	82 10 20 05 	mov  5, %g1
41005e0c:	9e 10 00 1f 	mov  %i7, %o7
41005e10:	c2 22 40 00 	st  %g1, [ %o1 ]
41005e14:	f8 1b a0 90 	ldd  [ %sp + 0x90 ], %i4
41005e18:	fe 03 a0 9c 	ld  [ %sp + 0x9c ], %i7
41005e1c:	81 c3 e0 08 	retl 
41005e20:	9c 03 a0 60 	add  %sp, 0x60, %sp
41005e24:	ba 10 00 09 	mov  %o1, %i5
41005e28:	40 00 00 99 	call  4100608c <xky_syscall_get_elapsed_ticks>
41005e2c:	b8 10 00 08 	mov  %o0, %i4
41005e30:	03 10 40 2c 	sethi  %hi(0x4100b000), %g1
41005e34:	c8 00 61 f0 	ld  [ %g1 + 0x1f0 ], %g4	! 4100b1f0 <imaspex_ns_per_tick>
41005e38:	82 10 61 f0 	or  %g1, 0x1f0, %g1
41005e3c:	88 59 00 09 	smul  %g4, %o1, %g4
41005e40:	c2 00 60 04 	ld  [ %g1 + 4 ], %g1
41005e44:	86 50 40 09 	umul  %g1, %o1, %g3
41005e48:	85 40 00 00 	rd  %y, %g2
41005e4c:	90 58 40 08 	smul  %g1, %o0, %o0
41005e50:	88 02 00 04 	add  %o0, %g4, %g4
41005e54:	84 01 00 02 	add  %g4, %g2, %g2
41005e58:	c4 3f 00 00 	std  %g2, [ %i4 ]
41005e5c:	c0 27 40 00 	clr  [ %i5 ]
41005e60:	9e 10 00 1f 	mov  %i7, %o7
41005e64:	f8 1b a0 90 	ldd  [ %sp + 0x90 ], %i4
41005e68:	fe 03 a0 9c 	ld  [ %sp + 0x9c ], %i7
41005e6c:	81 c3 e0 08 	retl 
41005e70:	9c 03 a0 60 	add  %sp, 0x60, %sp

41005e74 <SET_A_PARTITION_MODE>:
41005e74:	fa 23 a0 34 	st  %i5, [ %sp + 0x34 ]
41005e78:	fe 23 a0 3c 	st  %i7, [ %sp + 0x3c ]
41005e7c:	9c 03 bf a0 	add  %sp, -96, %sp
41005e80:	03 10 40 29 	sethi  %hi(0x4100a400), %g1
41005e84:	c2 00 63 b4 	ld  [ %g1 + 0x3b4 ], %g1	! 4100a7b4 <imaspex_tsal_init>
41005e88:	80 a0 60 00 	cmp  %g1, 0
41005e8c:	12 80 00 09 	bne  41005eb0 <SET_A_PARTITION_MODE+0x3c>
41005e90:	be 10 00 0f 	mov  %o7, %i7
41005e94:	82 10 20 05 	mov  5, %g1
41005e98:	9e 10 00 1f 	mov  %i7, %o7
41005e9c:	c2 22 80 00 	st  %g1, [ %o2 ]
41005ea0:	fa 03 a0 94 	ld  [ %sp + 0x94 ], %i5
41005ea4:	fe 03 a0 9c 	ld  [ %sp + 0x9c ], %i7
41005ea8:	81 c3 e0 08 	retl 
41005eac:	9c 03 a0 60 	add  %sp, 0x60, %sp
41005eb0:	40 00 00 83 	call  410060bc <xky_syscall_set_partition_mode>
41005eb4:	ba 10 00 0a 	mov  %o2, %i5
41005eb8:	d0 27 40 00 	st  %o0, [ %i5 ]
41005ebc:	9e 10 00 1f 	mov  %i7, %o7
41005ec0:	fa 03 a0 94 	ld  [ %sp + 0x94 ], %i5
41005ec4:	fe 03 a0 9c 	ld  [ %sp + 0x9c ], %i7
41005ec8:	81 c3 e0 08 	retl 
41005ecc:	9c 03 a0 60 	add  %sp, 0x60, %sp

41005ed0 <GET_A_PARTITION_STATUS>:
41005ed0:	f8 3b a0 30 	std  %i4, [ %sp + 0x30 ]
41005ed4:	fe 23 a0 3c 	st  %i7, [ %sp + 0x3c ]
41005ed8:	9c 03 bf 70 	add  %sp, -144, %sp
41005edc:	03 10 40 29 	sethi  %hi(0x4100a400), %g1
41005ee0:	c2 00 63 b4 	ld  [ %g1 + 0x3b4 ], %g1	! 4100a7b4 <imaspex_tsal_init>
41005ee4:	80 a0 60 00 	cmp  %g1, 0
41005ee8:	12 80 00 09 	bne  41005f0c <GET_A_PARTITION_STATUS+0x3c>
41005eec:	be 10 00 0f 	mov  %o7, %i7
41005ef0:	82 10 20 05 	mov  5, %g1
41005ef4:	c2 22 80 00 	st  %g1, [ %o2 ]
41005ef8:	9e 10 00 1f 	mov  %i7, %o7
41005efc:	f8 1b a0 c0 	ldd  [ %sp + 0xc0 ], %i4
41005f00:	fe 03 a0 cc 	ld  [ %sp + 0xcc ], %i7
41005f04:	81 c3 e0 08 	retl 
41005f08:	9c 03 a0 90 	add  %sp, 0x90, %sp
41005f0c:	ba 10 00 0a 	mov  %o2, %i5
41005f10:	b8 10 00 09 	mov  %o1, %i4
41005f14:	40 00 00 66 	call  410060ac <xky_syscall_get_partition_status>
41005f18:	92 03 a0 60 	add  %sp, 0x60, %o1
41005f1c:	80 a2 20 00 	cmp  %o0, 0
41005f20:	12 bf ff f6 	bne  41005ef8 <GET_A_PARTITION_STATUS+0x28>
41005f24:	d0 27 40 00 	st  %o0, [ %i5 ]
41005f28:	c2 03 a0 84 	ld  [ %sp + 0x84 ], %g1
41005f2c:	c4 1b a0 70 	ldd  [ %sp + 0x70 ], %g2
41005f30:	c2 27 20 1c 	st  %g1, [ %i4 + 0x1c ]
41005f34:	c2 03 a0 78 	ld  [ %sp + 0x78 ], %g1
41005f38:	c4 3f 20 08 	std  %g2, [ %i4 + 8 ]
41005f3c:	c2 27 20 10 	st  %g1, [ %i4 + 0x10 ]
41005f40:	c4 1b a0 68 	ldd  [ %sp + 0x68 ], %g2
41005f44:	c2 03 a0 80 	ld  [ %sp + 0x80 ], %g1
41005f48:	c4 3f 00 00 	std  %g2, [ %i4 ]
41005f4c:	c2 27 20 18 	st  %g1, [ %i4 + 0x18 ]
41005f50:	9e 10 00 1f 	mov  %i7, %o7
41005f54:	f8 1b a0 c0 	ldd  [ %sp + 0xc0 ], %i4
41005f58:	fe 03 a0 cc 	ld  [ %sp + 0xcc ], %i7
41005f5c:	81 c3 e0 08 	retl 
41005f60:	9c 03 a0 90 	add  %sp, 0x90, %sp

41005f64 <GET_A_PARTITION_ID>:
41005f64:	fa 23 a0 34 	st  %i5, [ %sp + 0x34 ]
41005f68:	fe 23 a0 3c 	st  %i7, [ %sp + 0x3c ]
41005f6c:	9c 03 bf a0 	add  %sp, -96, %sp
41005f70:	03 10 40 29 	sethi  %hi(0x4100a400), %g1
41005f74:	c2 00 63 b4 	ld  [ %g1 + 0x3b4 ], %g1	! 4100a7b4 <imaspex_tsal_init>
41005f78:	80 a0 60 00 	cmp  %g1, 0
41005f7c:	12 80 00 09 	bne  41005fa0 <GET_A_PARTITION_ID+0x3c>
41005f80:	be 10 00 0f 	mov  %o7, %i7
41005f84:	82 10 20 05 	mov  5, %g1
41005f88:	9e 10 00 1f 	mov  %i7, %o7
41005f8c:	c2 22 80 00 	st  %g1, [ %o2 ]
41005f90:	fa 03 a0 94 	ld  [ %sp + 0x94 ], %i5
41005f94:	fe 03 a0 9c 	ld  [ %sp + 0x9c ], %i7
41005f98:	81 c3 e0 08 	retl 
41005f9c:	9c 03 a0 60 	add  %sp, 0x60, %sp
41005fa0:	40 00 00 3f 	call  4100609c <xky_syscall_get_partition_id>
41005fa4:	ba 10 00 0a 	mov  %o2, %i5
41005fa8:	d0 27 40 00 	st  %o0, [ %i5 ]
41005fac:	9e 10 00 1f 	mov  %i7, %o7
41005fb0:	fa 03 a0 94 	ld  [ %sp + 0x94 ], %i5
41005fb4:	fe 03 a0 9c 	ld  [ %sp + 0x9c ], %i7
41005fb8:	81 c3 e0 08 	retl 
41005fbc:	9c 03 a0 60 	add  %sp, 0x60, %sp

41005fc0 <GET_PARTITION_ID>:
41005fc0:	fa 23 a0 34 	st  %i5, [ %sp + 0x34 ]
41005fc4:	fe 23 a0 3c 	st  %i7, [ %sp + 0x3c ]
41005fc8:	9c 03 bf a0 	add  %sp, -96, %sp
41005fcc:	03 10 40 29 	sethi  %hi(0x4100a400), %g1
41005fd0:	c2 00 63 b4 	ld  [ %g1 + 0x3b4 ], %g1	! 4100a7b4 <imaspex_tsal_init>
41005fd4:	80 a0 60 00 	cmp  %g1, 0
41005fd8:	12 80 00 09 	bne  41005ffc <GET_PARTITION_ID+0x3c>
41005fdc:	be 10 00 0f 	mov  %o7, %i7
41005fe0:	82 10 20 05 	mov  5, %g1
41005fe4:	9e 10 00 1f 	mov  %i7, %o7
41005fe8:	c2 22 40 00 	st  %g1, [ %o1 ]
41005fec:	fa 03 a0 94 	ld  [ %sp + 0x94 ], %i5
41005ff0:	fe 03 a0 9c 	ld  [ %sp + 0x9c ], %i7
41005ff4:	81 c3 e0 08 	retl 
41005ff8:	9c 03 a0 60 	add  %sp, 0x60, %sp
41005ffc:	ba 10 00 09 	mov  %o1, %i5
41006000:	92 10 00 08 	mov  %o0, %o1
41006004:	40 00 00 26 	call  4100609c <xky_syscall_get_partition_id>
41006008:	90 10 20 00 	clr  %o0
4100600c:	d0 27 40 00 	st  %o0, [ %i5 ]
41006010:	9e 10 00 1f 	mov  %i7, %o7
41006014:	fa 03 a0 94 	ld  [ %sp + 0x94 ], %i5
41006018:	fe 03 a0 9c 	ld  [ %sp + 0x9c ], %i7
4100601c:	81 c3 e0 08 	retl 
41006020:	9c 03 a0 60 	add  %sp, 0x60, %sp

41006024 <SIGNAL_ACTIVITY_COMPLETION>:
41006024:	03 10 40 29 	sethi  %hi(0x4100a400), %g1
41006028:	c2 00 63 b4 	ld  [ %g1 + 0x3b4 ], %g1	! 4100a7b4 <imaspex_tsal_init>
4100602c:	80 a0 60 00 	cmp  %g1, 0
41006030:	02 80 00 04 	be  41006040 <SIGNAL_ACTIVITY_COMPLETION+0x1c>
41006034:	82 10 20 01 	mov  1, %g1
41006038:	81 c3 e0 08 	retl 
4100603c:	c2 22 00 00 	st  %g1, [ %o0 ]
41006040:	82 10 20 05 	mov  5, %g1
41006044:	81 c3 e0 08 	retl 
41006048:	c2 22 00 00 	st  %g1, [ %o0 ]

4100604c <xky_syscall_get_physical_addr>:
4100604c:	9a 10 20 03 	mov  3, %o5
41006050:	91 d0 20 00 	ta  0
41006054:	81 c3 e0 08 	retl 
41006058:	01 00 00 00 	nop 

4100605c <xky_syscall_get_core_id>:
4100605c:	9a 10 20 04 	mov  4, %o5	! 4 <PROM_START+0x4>
41006060:	91 d0 20 00 	ta  0
41006064:	81 c3 e0 08 	retl 
41006068:	01 00 00 00 	nop 

4100606c <xky_syscall_boot_core>:
4100606c:	9a 10 20 05 	mov  5, %o5	! 5 <PROM_START+0x5>
41006070:	91 d0 20 00 	ta  0
41006074:	81 c3 e0 08 	retl 
41006078:	01 00 00 00 	nop 

4100607c <xky_syscall_get_us_per_tick>:
4100607c:	9a 10 20 06 	mov  6, %o5	! 6 <PROM_START+0x6>
41006080:	91 d0 20 00 	ta  0
41006084:	81 c3 e0 08 	retl 
41006088:	01 00 00 00 	nop 

4100608c <xky_syscall_get_elapsed_ticks>:
4100608c:	9a 10 20 07 	mov  7, %o5	! 7 <PROM_START+0x7>
41006090:	91 d0 20 00 	ta  0
41006094:	81 c3 e0 08 	retl 
41006098:	01 00 00 00 	nop 

4100609c <xky_syscall_get_partition_id>:
4100609c:	9a 10 20 08 	mov  8, %o5	! 8 <PROM_START+0x8>
410060a0:	91 d0 20 00 	ta  0
410060a4:	81 c3 e0 08 	retl 
410060a8:	01 00 00 00 	nop 

410060ac <xky_syscall_get_partition_status>:
410060ac:	9a 10 20 09 	mov  9, %o5	! 9 <PROM_START+0x9>
410060b0:	91 d0 20 00 	ta  0
410060b4:	81 c3 e0 08 	retl 
410060b8:	01 00 00 00 	nop 

410060bc <xky_syscall_set_partition_mode>:
410060bc:	9a 10 20 0a 	mov  0xa, %o5	! a <PROM_START+0xa>
410060c0:	91 d0 20 00 	ta  0
410060c4:	81 c3 e0 08 	retl 
410060c8:	01 00 00 00 	nop 

410060cc <xky_syscall_get_schedule_id>:
410060cc:	9a 10 20 0b 	mov  0xb, %o5	! b <PROM_START+0xb>
410060d0:	91 d0 20 00 	ta  0
410060d4:	81 c3 e0 08 	retl 
410060d8:	01 00 00 00 	nop 

410060dc <xky_syscall_get_schedule_status>:
410060dc:	9a 10 20 0c 	mov  0xc, %o5	! c <PROM_START+0xc>
410060e0:	91 d0 20 00 	ta  0
410060e4:	81 c3 e0 08 	retl 
410060e8:	01 00 00 00 	nop 

410060ec <xky_syscall_set_schedule>:
410060ec:	9a 10 20 0d 	mov  0xd, %o5	! d <PROM_START+0xd>
410060f0:	91 d0 20 00 	ta  0
410060f4:	81 c3 e0 08 	retl 
410060f8:	01 00 00 00 	nop 

410060fc <xky_syscall_get_tod>:
410060fc:	9a 10 20 0e 	mov  0xe, %o5	! e <PROM_START+0xe>
41006100:	91 d0 20 00 	ta  0
41006104:	81 c3 e0 08 	retl 
41006108:	01 00 00 00 	nop 

4100610c <xky_syscall_set_tod>:
4100610c:	9a 10 20 0f 	mov  0xf, %o5	! f <PROM_START+0xf>
41006110:	91 d0 20 00 	ta  0
41006114:	81 c3 e0 08 	retl 
41006118:	01 00 00 00 	nop 

4100611c <xky_syscall_get_port_id>:
4100611c:	9a 10 20 10 	mov  0x10, %o5	! 10 <PROM_START+0x10>
41006120:	91 d0 20 00 	ta  0
41006124:	81 c3 e0 08 	retl 
41006128:	01 00 00 00 	nop 

4100612c <xky_syscall_create_port>:
4100612c:	9a 10 20 12 	mov  0x12, %o5	! 12 <PROM_START+0x12>
41006130:	91 d0 20 00 	ta  0
41006134:	81 c3 e0 08 	retl 
41006138:	01 00 00 00 	nop 

4100613c <xky_syscall_get_port_status>:
4100613c:	9a 10 20 11 	mov  0x11, %o5	! 11 <PROM_START+0x11>
41006140:	91 d0 20 00 	ta  0
41006144:	81 c3 e0 08 	retl 
41006148:	01 00 00 00 	nop 

4100614c <xky_syscall_read_port>:
4100614c:	9a 10 20 13 	mov  0x13, %o5	! 13 <PROM_START+0x13>
41006150:	91 d0 20 00 	ta  0
41006154:	81 c3 e0 08 	retl 
41006158:	01 00 00 00 	nop 

4100615c <xky_syscall_write_port>:
4100615c:	9a 10 20 14 	mov  0x14, %o5	! 14 <PROM_START+0x14>
41006160:	91 d0 20 00 	ta  0
41006164:	81 c3 e0 08 	retl 
41006168:	01 00 00 00 	nop 

4100616c <xky_syscall_get_sharedmemory>:
4100616c:	9a 10 20 15 	mov  0x15, %o5	! 15 <PROM_START+0x15>
41006170:	91 d0 20 00 	ta  0
41006174:	81 c3 e0 08 	retl 
41006178:	01 00 00 00 	nop 

4100617c <xky_syscall_shutdown_module>:
4100617c:	9a 10 20 17 	mov  0x17, %o5	! 17 <PROM_START+0x17>
41006180:	91 d0 20 00 	ta  0
41006184:	81 c3 e0 08 	retl 
41006188:	01 00 00 00 	nop 

4100618c <xky_syscall_get_event>:
4100618c:	9a 10 20 18 	mov  0x18, %o5	! 18 <PROM_START+0x18>
41006190:	91 d0 20 00 	ta  0
41006194:	81 c3 e0 08 	retl 
41006198:	01 00 00 00 	nop 

4100619c <xky_syscall_get_system_state>:
4100619c:	9a 10 20 19 	mov  0x19, %o5	! 19 <PROM_START+0x19>
410061a0:	91 d0 20 00 	ta  0
410061a4:	81 c3 e0 08 	retl 
410061a8:	01 00 00 00 	nop 

410061ac <xky_syscall_set_system_state>:
410061ac:	9a 10 20 1a 	mov  0x1a, %o5	! 1a <PROM_START+0x1a>
410061b0:	91 d0 20 00 	ta  0
410061b4:	81 c3 e0 08 	retl 
410061b8:	01 00 00 00 	nop 

410061bc <xky_syscall_get_hm_event>:
410061bc:	9a 10 20 1b 	mov  0x1b, %o5	! 1b <PROM_START+0x1b>
410061c0:	91 d0 20 00 	ta  0
410061c4:	81 c3 e0 08 	retl 
410061c8:	01 00 00 00 	nop 

410061cc <xky_syscall_raise_hm_event>:
410061cc:	9a 10 20 1c 	mov  0x1c, %o5	! 1c <PROM_START+0x1c>
410061d0:	91 d0 20 00 	ta  0
410061d4:	81 c3 e0 08 	retl 
410061d8:	01 00 00 00 	nop 

410061dc <xky_syscall_print>:
410061dc:	9a 10 20 1e 	mov  0x1e, %o5	! 1e <PROM_START+0x1e>
410061e0:	91 d0 20 00 	ta  0
410061e4:	81 c3 e0 08 	retl 
410061e8:	01 00 00 00 	nop 

410061ec <xky_syscall_putchar>:
410061ec:	9a 10 20 1d 	mov  0x1d, %o5	! 1d <PROM_START+0x1d>
410061f0:	91 d0 20 00 	ta  0
410061f4:	81 c3 e0 08 	retl 
410061f8:	01 00 00 00 	nop 

410061fc <xky_sparc_disable_interrupts>:
410061fc:	9a 10 20 00 	clr  %o5	! 0 <PROM_START>
41006200:	91 d0 20 82 	ta  0x82
41006204:	81 c3 e0 08 	retl 
41006208:	01 00 00 00 	nop 

4100620c <xky_sparc_enable_interrupts>:
4100620c:	9a 10 20 01 	mov  1, %o5	! 1 <PROM_START+0x1>
41006210:	91 d0 20 82 	ta  0x82
41006214:	81 c3 e0 08 	retl 
41006218:	01 00 00 00 	nop 

4100621c <xky_sparc_disable_traps>:
4100621c:	9a 10 20 02 	mov  2, %o5	! 2 <PROM_START+0x2>
41006220:	91 d0 20 82 	ta  0x82
41006224:	81 c3 e0 08 	retl 
41006228:	01 00 00 00 	nop 

4100622c <xky_sparc_enable_traps>:
4100622c:	9a 10 20 03 	mov  3, %o5	! 3 <PROM_START+0x3>
41006230:	91 d0 20 82 	ta  0x82
41006234:	81 c3 e0 08 	retl 
41006238:	01 00 00 00 	nop 

4100623c <xky_sparc_disable_fpu>:
4100623c:	9a 10 20 04 	mov  4, %o5	! 4 <PROM_START+0x4>
41006240:	91 d0 20 82 	ta  0x82
41006244:	81 c3 e0 08 	retl 
41006248:	01 00 00 00 	nop 

4100624c <xky_sparc_enable_fpu>:
4100624c:	9a 10 20 05 	mov  5, %o5	! 5 <PROM_START+0x5>
41006250:	91 d0 20 82 	ta  0x82
41006254:	81 c3 e0 08 	retl 
41006258:	01 00 00 00 	nop 

4100625c <xky_sparc_get_tbr>:
4100625c:	9a 10 20 06 	mov  6, %o5	! 6 <PROM_START+0x6>
41006260:	91 d0 20 82 	ta  0x82
41006264:	81 c3 e0 08 	retl 
41006268:	01 00 00 00 	nop 

4100626c <xky_sparc_set_tbr>:
4100626c:	9a 10 20 07 	mov  7, %o5	! 7 <PROM_START+0x7>
41006270:	91 d0 20 82 	ta  0x82
41006274:	81 c3 e0 08 	retl 
41006278:	01 00 00 00 	nop 

4100627c <xky_sparc_get_psr>:
4100627c:	9a 10 20 08 	mov  8, %o5	! 8 <PROM_START+0x8>
41006280:	91 d0 20 82 	ta  0x82
41006284:	81 c3 e0 08 	retl 
41006288:	01 00 00 00 	nop 

4100628c <xky_sparc_set_psr>:
4100628c:	9a 10 20 09 	mov  9, %o5	! 9 <PROM_START+0x9>
41006290:	91 d0 20 82 	ta  0x82
41006294:	81 c3 e0 08 	retl 
41006298:	01 00 00 00 	nop 

4100629c <xky_sparc_get_cache_register>:
4100629c:	9a 10 20 0b 	mov  0xb, %o5	! b <PROM_START+0xb>
410062a0:	91 d0 20 82 	ta  0x82
410062a4:	81 c3 e0 08 	retl 
410062a8:	01 00 00 00 	nop 

410062ac <xky_sparc_set_cache_register>:
410062ac:	9a 10 20 0c 	mov  0xc, %o5	! c <PROM_START+0xc>
410062b0:	91 d0 20 82 	ta  0x82
410062b4:	81 c3 e0 08 	retl 
410062b8:	01 00 00 00 	nop 

410062bc <xky_sparc_get_irq_mask_register>:
410062bc:	9a 10 20 0e 	mov  0xe, %o5	! e <PROM_START+0xe>
410062c0:	91 d0 20 82 	ta  0x82
410062c4:	81 c3 e0 08 	retl 
410062c8:	01 00 00 00 	nop 

410062cc <xky_sparc_set_irq_mask_register>:
410062cc:	9a 10 20 0f 	mov  0xf, %o5	! f <PROM_START+0xf>
410062d0:	91 d0 20 82 	ta  0x82
410062d4:	81 c3 e0 08 	retl 
410062d8:	01 00 00 00 	nop 

410062dc <xky_sparc_set_irq_force_register>:
410062dc:	9a 10 20 10 	mov  0x10, %o5	! 10 <PROM_START+0x10>
410062e0:	91 d0 20 82 	ta  0x82
410062e4:	81 c3 e0 08 	retl 
410062e8:	01 00 00 00 	nop 

410062ec <__do_global_ctors_aux>:
410062ec:	9d e3 bf a0 	save  %sp, -96, %sp
410062f0:	21 10 40 18 	sethi  %hi(0x41006000), %l0
410062f4:	a0 14 23 88 	or  %l0, 0x388, %l0	! 41006388 <__CTOR_END__>
410062f8:	c2 04 3f fc 	ld  [ %l0 + -4 ], %g1
410062fc:	80 a0 7f ff 	cmp  %g1, -1
41006300:	02 80 00 08 	be  41006320 <__do_global_ctors_aux+0x34>
41006304:	a0 04 3f fc 	add  %l0, -4, %l0
41006308:	9f c0 40 00 	call  %g1
4100630c:	a0 04 3f fc 	add  %l0, -4, %l0
41006310:	c2 04 00 00 	ld  [ %l0 ], %g1
41006314:	80 a0 7f ff 	cmp  %g1, -1
41006318:	12 bf ff fc 	bne  41006308 <__do_global_ctors_aux+0x1c>
4100631c:	01 00 00 00 	nop 
41006320:	81 c7 e0 08 	ret 
41006324:	81 e8 00 00 	restore 

41006328 <call___do_global_ctors_aux>:
41006328:	9d e3 bf a0 	save  %sp, -96, %sp
4100632c:	81 c7 e0 08 	ret 
41006330:	81 e8 00 00 	restore 
	...

41006340 <__start_set_sysctl_set>:
41006340:	00 00 00 10 	unimp  0x10
41006344:	00 00 00 00 	unimp  0
41006348:	01 7a 52 00 	unknown
4100634c:	04 7c 0f 01 	unknown
41006350:	1b 0c 0e 00 	sethi  %hi(0x30380000), %o5
41006354:	00 00 00 18 	unimp  0x18
41006358:	00 00 00 18 	unimp  0x18
4100635c:	ff ff ef ec 	unknown
41006360:	00 00 02 28 	unimp  0x228
41006364:	00 41 0d 1e 	unknown
41006368:	2d 58 09 0f 	unknown
4100636c:	1f 00 00 00 	sethi  %hi(0), %o7

41006370 <__FRAME_END__>:
	...

41006380 <__CTOR_LIST__>:
41006380:	00 00 00 02 	unimp  0x2

41006384 <__CTOR_LIST__>:
41006384:	ff ff ff ff                                         ....

41006388 <__CTOR_END__>:
	...

41006390 <__CTOR_END__>:
41006390:	00 00 00 02 	unimp  0x2

41006394 <__DTOR_LIST__>:
41006394:	ff ff ff ff 00 00 00 00 00 00 00 00                 ............

410063a0 <__DTOR_END__>:
410063a0:	49 6e 20 70 61 72 74 69 74 69 6f 6e 20 50 4f 20     In partition PO 
410063b0:	6c 6f 6f 70 20 74 32 30 0a 00 00 00 00 00 00 00     loop t20........
410063c0:	50 30 20 3a 20 57 61 6b 69 6e 67 20 75 70 0a 00     P0 : Waking up..
410063d0:	50 4f 3a 20 54 50 53 20 25 69 0a 00 00 00 00 00     PO: TPS %i......

410063e0 <__log2table>:
410063e0:	07 07 06 06 05 05 05 05 04 04 04 04 04 04 04 04     ................
410063f0:	03 03 03 03 03 03 03 03 03 03 03 03 03 03 03 03     ................
41006400:	02 02 02 02 02 02 02 02 02 02 02 02 02 02 02 02     ................
41006410:	02 02 02 02 02 02 02 02 02 02 02 02 02 02 02 02     ................
41006420:	01 01 01 01 01 01 01 01 01 01 01 01 01 01 01 01     ................
41006430:	01 01 01 01 01 01 01 01 01 01 01 01 01 01 01 01     ................
41006440:	01 01 01 01 01 01 01 01 01 01 01 01 01 01 01 01     ................
41006450:	01 01 01 01 01 01 01 01 01 01 01 01 01 01 01 01     ................
	...
410064e0:	49 44 4c 45 00 00 00 00                             IDLE....

410064e8 <__clz_tab>:
410064e8:	00 01 02 02 03 03 03 03 04 04 04 04 04 04 04 04     ................
410064f8:	05 05 05 05 05 05 05 05 05 05 05 05 05 05 05 05     ................
41006508:	06 06 06 06 06 06 06 06 06 06 06 06 06 06 06 06     ................
41006518:	06 06 06 06 06 06 06 06 06 06 06 06 06 06 06 06     ................
41006528:	07 07 07 07 07 07 07 07 07 07 07 07 07 07 07 07     ................
41006538:	07 07 07 07 07 07 07 07 07 07 07 07 07 07 07 07     ................
41006548:	07 07 07 07 07 07 07 07 07 07 07 07 07 07 07 07     ................
41006558:	07 07 07 07 07 07 07 07 07 07 07 07 07 07 07 07     ................
41006568:	08 08 08 08 08 08 08 08 08 08 08 08 08 08 08 08     ................
41006578:	08 08 08 08 08 08 08 08 08 08 08 08 08 08 08 08     ................
41006588:	08 08 08 08 08 08 08 08 08 08 08 08 08 08 08 08     ................
41006598:	08 08 08 08 08 08 08 08 08 08 08 08 08 08 08 08     ................
410065a8:	08 08 08 08 08 08 08 08 08 08 08 08 08 08 08 08     ................
410065b8:	08 08 08 08 08 08 08 08 08 08 08 08 08 08 08 08     ................
410065c8:	08 08 08 08 08 08 08 08 08 08 08 08 08 08 08 08     ................
410065d8:	08 08 08 08 08 08 08 08 08 08 08 08 08 08 08 08     ................

410065e8 <digits.1261>:
410065e8:	30 31 32 33 34 35 36 37 38 39 41 42 43 44 45 46     0123456789ABCDEF

410065f8 <_init>:
410065f8:	9d e3 bf a0 	save  %sp, -96, %sp
410065fc:	7f ff e6 c3 	call  41000108 <frame_dummy>

41006600 <_erodata>:
41006600:	01 00 00 00 	nop 
41006604:	7f ff ff 3a 	call  410062ec <__do_global_ctors_aux>
41006608:	01 00 00 00 	nop 
4100660c:	81 c7 e0 08 	ret 
41006610:	81 e8 00 00 	restore 

41006614 <_fini>:
41006614:	9d e3 bf a0 	save  %sp, -96, %sp
41006618:	7f ff e6 91 	call  4100005c <__do_global_dtors_aux>
4100661c:	01 00 00 00 	nop 
41006620:	81 c7 e0 08 	ret 
41006624:	81 e8 00 00 	restore 
	...
